ARM GAS  C:\Users\Schuyler\AppData\Local\Temp\ccGUNfU4.s 			page 1


   1              		.syntax unified
   2              		.cpu cortex-m3
   3              		.fpu softvfp
   4              		.eabi_attribute 20, 1
   5              		.eabi_attribute 21, 1
   6              		.eabi_attribute 23, 3
   7              		.eabi_attribute 24, 1
   8              		.eabi_attribute 25, 1
   9              		.eabi_attribute 26, 1
  10              		.eabi_attribute 30, 1
  11              		.eabi_attribute 34, 1
  12              		.eabi_attribute 18, 4
  13              		.thumb
  14              		.file	"can_manga.c"
  15              		.text
  16              	.Ltext0:
  17              		.cfi_sections	.debug_frame
  18              		.section	.text.testHandler,"ax",%progbits
  19              		.align	2
  20              		.global	testHandler
  21              		.thumb
  22              		.thumb_func
  23              		.type	testHandler, %function
  24              	testHandler:
  25              	.LFB0:
  26              		.file 1 "can_manga_handlers.h"
   1:can_manga_handlers.h **** /* ========================================
   2:can_manga_handlers.h ****  * This file is used for declaring functions which will be executed for a particular CAN ID.
   3:can_manga_handlers.h ****  * ========================================
   4:can_manga_handlers.h **** 
   5:can_manga_handlers.h ****     Make sure to use macros to access data bytes. They are not in
   6:can_manga_handlers.h ****     the order you expect! These macros were defined by Cypress in CAN_1.h.
   7:can_manga_handlers.h ****     
   8:can_manga_handlers.h ****     CAN_1_DATA_BYTE_1    
   9:can_manga_handlers.h ****     CAN_1_DATA_BYTE_2    
  10:can_manga_handlers.h ****     CAN_1_DATA_BYTE_3    
  11:can_manga_handlers.h ****     CAN_1_DATA_BYTE_4    
  12:can_manga_handlers.h ****     CAN_1_DATA_BYTE_5
  13:can_manga_handlers.h ****     CAN_1_DATA_BYTE_6
  14:can_manga_handlers.h ****     CAN_1_DATA_BYTE_7
  15:can_manga_handlers.h ****     CAN_1_DATA_BYTE_8
  16:can_manga_handlers.h **** */
  17:can_manga_handlers.h **** 
  18:can_manga_handlers.h **** #ifndef CAN_MANGA_HANDLERS_H
  19:can_manga_handlers.h **** #define CAN_MANGA_HANDLERS_H
  20:can_manga_handlers.h **** 
  21:can_manga_handlers.h **** #include "CAN.h"
  22:can_manga_handlers.h ****     
  23:can_manga_handlers.h **** 
  24:can_manga_handlers.h **** // Handles 0x300
  25:can_manga_handlers.h **** void testHandler(CAN_RX_STRUCT msg)
  26:can_manga_handlers.h **** {
  27              		.loc 1 26 0
  28              		.cfi_startproc
  29              		@ args = 32, pretend = 16, frame = 0
  30              		@ frame_needed = 0, uses_anonymous_args = 0
  31              		@ link register save eliminated.
ARM GAS  C:\Users\Schuyler\AppData\Local\Temp\ccGUNfU4.s 			page 2


  32 0000 84B0     		sub	sp, sp, #16
  33              		.cfi_def_cfa_offset 16
  34 0002 8DE80F00 		stmia	sp, {r0, r1, r2, r3}
  27:can_manga_handlers.h ****     return;
  28:can_manga_handlers.h **** };
  35              		.loc 1 28 0
  36 0006 04B0     		add	sp, sp, #16
  37              		.cfi_def_cfa_offset 0
  38 0008 7047     		bx	lr
  39              		.cfi_endproc
  40              	.LFE0:
  41              		.size	testHandler, .-testHandler
  42 000a 00BF     		.section	.text.can_receive,"ax",%progbits
  43              		.align	2
  44              		.global	can_receive
  45              		.thumb
  46              		.thumb_func
  47              		.type	can_receive, %function
  48              	can_receive:
  49              	.LFB1:
  50              		.file 2 "can_manga.c"
   1:can_manga.c   **** /* ========================================
   2:can_manga.c   ****  * Can API for FRUCD
   3:can_manga.c   ****  * Schuyler Alschuler 2016 - 2017
   4:can_manga.c   ****  * ========================================
   5:can_manga.c   **** */
   6:can_manga.c   **** 
   7:can_manga.c   **** #include "CAN.h"
   8:can_manga.c   **** #include "can_manga.h"
   9:can_manga.c   **** #include "can_manga_handlers.h"
  10:can_manga.c   **** 
  11:can_manga.c   **** 
  12:can_manga.c   **** void can_receive(CAN_RX_STRUCT msg, int ID)
  13:can_manga.c   **** {
  51              		.loc 2 13 0
  52              		.cfi_startproc
  53              		@ args = 36, pretend = 16, frame = 0
  54              		@ frame_needed = 0, uses_anonymous_args = 0
  55              		@ link register save eliminated.
  56              	.LVL0:
  57 0000 84B0     		sub	sp, sp, #16
  58              		.cfi_def_cfa_offset 16
  59 0002 8DE80F00 		stmia	sp, {r0, r1, r2, r3}
  14:can_manga.c   ****     switch (ID) 
  15:can_manga.c   ****     {
  16:can_manga.c   ****         case 0x300:
  17:can_manga.c   ****             testHandler(msg);
  18:can_manga.c   ****             break;
  19:can_manga.c   ****         case 0x600:
  20:can_manga.c   ****             testHandler(msg);
  21:can_manga.c   ****     }
  22:can_manga.c   **** }
  60              		.loc 2 22 0
  61 0006 04B0     		add	sp, sp, #16
  62              		.cfi_def_cfa_offset 0
  63 0008 7047     		bx	lr
  64              		.cfi_endproc
ARM GAS  C:\Users\Schuyler\AppData\Local\Temp\ccGUNfU4.s 			page 3


  65              	.LFE1:
  66              		.size	can_receive, .-can_receive
  67              		.section	.text.can_test_send,"ax",%progbits
  68              		.align	2
  69              		.global	can_test_send
  70              		.thumb
  71              		.thumb_func
  72              		.type	can_test_send, %function
  73              	can_test_send:
  74              	.LFB2:
  23:can_manga.c   **** 
  24:can_manga.c   **** void can_test_send()
  25:can_manga.c   **** {
  75              		.loc 2 25 0
  76              		.cfi_startproc
  77              		@ args = 0, pretend = 0, frame = 16
  78              		@ frame_needed = 0, uses_anonymous_args = 0
  79 0000 00B5     		push	{lr}
  80              		.cfi_def_cfa_offset 4
  81              		.cfi_offset 14, -4
  82 0002 85B0     		sub	sp, sp, #20
  83              		.cfi_def_cfa_offset 24
  26:can_manga.c   ****     //CAN_1_DATA_BYTES_MSG msg;
  27:can_manga.c   ****     CAN_TX_MSG HeartB;
  28:can_manga.c   ****     
  29:can_manga.c   ****     HeartB.id = 0x300;
  84              		.loc 2 29 0
  85 0004 4FF44073 		mov	r3, #768
  86 0008 0193     		str	r3, [sp, #4]
  30:can_manga.c   ****     HeartB.rtr = 0;
  87              		.loc 2 30 0
  88 000a 0022     		movs	r2, #0
  89 000c 8DF80820 		strb	r2, [sp, #8]
  31:can_manga.c   ****     HeartB.ide = 0;
  90              		.loc 2 31 0
  91 0010 8DF80920 		strb	r2, [sp, #9]
  32:can_manga.c   ****     HeartB.dlc = 1;
  92              		.loc 2 32 0
  93 0014 0123     		movs	r3, #1
  94 0016 8DF80A30 		strb	r3, [sp, #10]
  33:can_manga.c   ****     
  34:can_manga.c   ****     HeartB.irq = 0;
  95              		.loc 2 34 0
  96 001a 8DF80B20 		strb	r2, [sp, #11]
  35:can_manga.c   ****     
  36:can_manga.c   ****     HeartB.msg->byte[0] = (uint8) 1;
  97              		.loc 2 36 0
  98 001e 039A     		ldr	r2, [sp, #12]
  99 0020 1370     		strb	r3, [r2]
  37:can_manga.c   ****     HeartB.msg->byte[1] = (uint8) 1;
 100              		.loc 2 37 0
 101 0022 039A     		ldr	r2, [sp, #12]
 102 0024 5370     		strb	r3, [r2, #1]
  38:can_manga.c   ****     HeartB.msg->byte[2] = (uint8) 1;
 103              		.loc 2 38 0
 104 0026 039A     		ldr	r2, [sp, #12]
 105 0028 9370     		strb	r3, [r2, #2]
ARM GAS  C:\Users\Schuyler\AppData\Local\Temp\ccGUNfU4.s 			page 4


  39:can_manga.c   ****     HeartB.msg->byte[3] = (uint8) 1;
 106              		.loc 2 39 0
 107 002a 039A     		ldr	r2, [sp, #12]
 108 002c D370     		strb	r3, [r2, #3]
  40:can_manga.c   ****     HeartB.msg->byte[4] = (uint8) 1;
 109              		.loc 2 40 0
 110 002e 039A     		ldr	r2, [sp, #12]
 111 0030 1371     		strb	r3, [r2, #4]
  41:can_manga.c   ****     HeartB.msg->byte[5] = (uint8) 1;
 112              		.loc 2 41 0
 113 0032 039A     		ldr	r2, [sp, #12]
 114 0034 5371     		strb	r3, [r2, #5]
  42:can_manga.c   ****     HeartB.msg->byte[6] = (uint8) 1;
 115              		.loc 2 42 0
 116 0036 039A     		ldr	r2, [sp, #12]
 117 0038 9371     		strb	r3, [r2, #6]
  43:can_manga.c   ****     HeartB.msg->byte[7] = (uint8) 1;
 118              		.loc 2 43 0
 119 003a 039A     		ldr	r2, [sp, #12]
 120 003c D371     		strb	r3, [r2, #7]
  44:can_manga.c   ****     
  45:can_manga.c   ****     CAN_SendMsg(&HeartB);
 121              		.loc 2 45 0
 122 003e 01A8     		add	r0, sp, #4
 123 0040 FFF7FEFF 		bl	CAN_SendMsg
 124              	.LVL1:
  46:can_manga.c   **** }
 125              		.loc 2 46 0
 126 0044 05B0     		add	sp, sp, #20
 127              		.cfi_def_cfa_offset 4
 128              		@ sp needed
 129 0046 5DF804FB 		ldr	pc, [sp], #4
 130              		.cfi_endproc
 131              	.LFE2:
 132              		.size	can_test_send, .-can_test_send
 133 004a 00BF     		.section	.text.can_send,"ax",%progbits
 134              		.align	2
 135              		.global	can_send
 136              		.thumb
 137              		.thumb_func
 138              		.type	can_send, %function
 139              	can_send:
 140              	.LFB3:
  47:can_manga.c   **** 
  48:can_manga.c   **** void can_send(uint8_t data[8], uint32_t ID)
  49:can_manga.c   **** {
 141              		.loc 2 49 0
 142              		.cfi_startproc
 143              		@ args = 0, pretend = 0, frame = 24
 144              		@ frame_needed = 0, uses_anonymous_args = 0
 145              	.LVL2:
 146 0000 00B5     		push	{lr}
 147              		.cfi_def_cfa_offset 4
 148              		.cfi_offset 14, -4
 149 0002 87B0     		sub	sp, sp, #28
 150              		.cfi_def_cfa_offset 32
  50:can_manga.c   ****     uint8_t i;
ARM GAS  C:\Users\Schuyler\AppData\Local\Temp\ccGUNfU4.s 			page 5


  51:can_manga.c   **** 	CAN_TX_MSG message;
  52:can_manga.c   **** 	CAN_DATA_BYTES_MSG payload;
  53:can_manga.c   **** 	message.id = ID; 
 151              		.loc 2 53 0
 152 0004 0391     		str	r1, [sp, #12]
  54:can_manga.c   **** 	message.rtr = 0;
 153              		.loc 2 54 0
 154 0006 0023     		movs	r3, #0
 155 0008 8DF81030 		strb	r3, [sp, #16]
  55:can_manga.c   **** 	message.ide = 0;
 156              		.loc 2 55 0
 157 000c 8DF81130 		strb	r3, [sp, #17]
  56:can_manga.c   **** 	message.dlc = 0x08;
 158              		.loc 2 56 0
 159 0010 0822     		movs	r2, #8
 160 0012 8DF81220 		strb	r2, [sp, #18]
  57:can_manga.c   **** 	message.irq = 0;
 161              		.loc 2 57 0
 162 0016 8DF81330 		strb	r3, [sp, #19]
  58:can_manga.c   **** 	message.msg = &payload;
 163              		.loc 2 58 0
 164 001a 01AA     		add	r2, sp, #4
 165 001c 0592     		str	r2, [sp, #20]
 166              	.LVL3:
  59:can_manga.c   **** 	for(i=0;i<8;i++)
 167              		.loc 2 59 0
 168 001e 06E0     		b	.L8
 169              	.LVL4:
 170              	.L9:
  60:can_manga.c   **** 		payload.byte[i] = data[i];
 171              		.loc 2 60 0 discriminator 3
 172 0020 C15C     		ldrb	r1, [r0, r3]	@ zero_extendqisi2
 173 0022 06AA     		add	r2, sp, #24
 174 0024 1A44     		add	r2, r2, r3
 175 0026 02F8141C 		strb	r1, [r2, #-20]
  59:can_manga.c   **** 	for(i=0;i<8;i++)
 176              		.loc 2 59 0 discriminator 3
 177 002a 0133     		adds	r3, r3, #1
 178              	.LVL5:
 179 002c DBB2     		uxtb	r3, r3
 180              	.LVL6:
 181              	.L8:
  59:can_manga.c   **** 	for(i=0;i<8;i++)
 182              		.loc 2 59 0 is_stmt 0 discriminator 1
 183 002e 072B     		cmp	r3, #7
 184 0030 F6D9     		bls	.L9
  61:can_manga.c   **** 	CAN_SendMsg(&message); 
 185              		.loc 2 61 0 is_stmt 1
 186 0032 03A8     		add	r0, sp, #12
 187              	.LVL7:
 188 0034 FFF7FEFF 		bl	CAN_SendMsg
 189              	.LVL8:
  62:can_manga.c   **** }
 190              		.loc 2 62 0
 191 0038 07B0     		add	sp, sp, #28
 192              		.cfi_def_cfa_offset 4
 193              		@ sp needed
ARM GAS  C:\Users\Schuyler\AppData\Local\Temp\ccGUNfU4.s 			page 6


 194 003a 5DF804FB 		ldr	pc, [sp], #4
 195              		.cfi_endproc
 196              	.LFE3:
 197              		.size	can_send, .-can_send
 198 003e 00BF     		.text
 199              	.Letext0:
 200              		.file 3 "c:\\program files (x86)\\cypress\\psoc creator\\4.0\\psoc creator\\import\\gnu\\arm\\4.9.
 201              		.file 4 "c:\\program files (x86)\\cypress\\psoc creator\\4.0\\psoc creator\\import\\gnu\\arm\\4.9.
 202              		.file 5 "Generated_Source\\PSoC5/cytypes.h"
 203              		.file 6 "Generated_Source\\PSoC5/CAN.h"