ARM GAS  C:\Users\Schuyler\AppData\Local\Temp\cc0AlsZs.s 			page 1


   1              		.syntax unified
   2              		.cpu cortex-m3
   3              		.fpu softvfp
   4              		.eabi_attribute 20, 1
   5              		.eabi_attribute 21, 1
   6              		.eabi_attribute 23, 3
   7              		.eabi_attribute 24, 1
   8              		.eabi_attribute 25, 1
   9              		.eabi_attribute 26, 1
  10              		.eabi_attribute 30, 1
  11              		.eabi_attribute 34, 1
  12              		.eabi_attribute 18, 4
  13              		.thumb
  14              		.file	"can_manga_handlers.c"
  15              		.text
  16              	.Ltext0:
  17              		.cfi_sections	.debug_frame
  18              		.section	.text.curtisFaultHandler,"ax",%progbits
  19              		.align	2
  20              		.global	curtisFaultHandler
  21              		.thumb
  22              		.thumb_func
  23              		.type	curtisFaultHandler, %function
  24              	curtisFaultHandler:
  25              	.LFB0:
  26              		.file 1 "can_manga_handlers.c"
   1:can_manga_handlers.c **** /* ========================================
   2:can_manga_handlers.c ****  * This file is used for declaring functions which will be executed for a particular CAN ID.
   3:can_manga_handlers.c ****  * ========================================
   4:can_manga_handlers.c **** 
   5:can_manga_handlers.c ****     Make sure to use macros to access data bytes. They are not in
   6:can_manga_handlers.c ****     the order you expect! These macros were defined by Cypress in CAN_1.h.
   7:can_manga_handlers.c ****     
   8:can_manga_handlers.c ****     CAN_1_DATA_BYTE_1    
   9:can_manga_handlers.c ****     CAN_1_DATA_BYTE_2    
  10:can_manga_handlers.c ****     CAN_1_DATA_BYTE_3    
  11:can_manga_handlers.c ****     CAN_1_DATA_BYTE_4    
  12:can_manga_handlers.c ****     CAN_1_DATA_BYTE_5
  13:can_manga_handlers.c ****     CAN_1_DATA_BYTE_6
  14:can_manga_handlers.c ****     CAN_1_DATA_BYTE_7
  15:can_manga_handlers.c ****     CAN_1_DATA_BYTE_8
  16:can_manga_handlers.c **** */
  17:can_manga_handlers.c **** 
  18:can_manga_handlers.c **** #include "can_manga_handlers.h"
  19:can_manga_handlers.c ****     
  20:can_manga_handlers.c **** // Define and initialize variables
  21:can_manga_handlers.c **** volatile MangaMessage CAPACITOR_VOLT = {0, 0};
  22:can_manga_handlers.c **** volatile MangaMessage CURTIS_FAULT_CHECK = {0, 0};
  23:can_manga_handlers.c **** volatile MangaMessage CURTIS_HEART_BEAT_CHECK = {0, 0};
  24:can_manga_handlers.c **** volatile MangaMessage ACK_RX = {0, 0};
  25:can_manga_handlers.c **** volatile MangaMessage ERROR_TOLERANCE = {0, 0};
  26:can_manga_handlers.c **** volatile MangaMessage ABS_MOTOR_RPM = {0, 0};
  27:can_manga_handlers.c **** volatile MangaMessage THROTTLE_HIGH = {0, 0};
  28:can_manga_handlers.c **** volatile MangaMessage THROTTLE_LOW = {0, 0};
  29:can_manga_handlers.c ****     
  30:can_manga_handlers.c **** // If you ever see 0xA6, just set CURTIS to 1 (so there has been a fault)
  31:can_manga_handlers.c **** void curtisFaultHandler()
ARM GAS  C:\Users\Schuyler\AppData\Local\Temp\cc0AlsZs.s 			page 2


  32:can_manga_handlers.c **** {
  27              		.loc 1 32 0
  28              		.cfi_startproc
  29              		@ args = 0, pretend = 0, frame = 0
  30              		@ frame_needed = 0, uses_anonymous_args = 0
  31 0000 08B5     		push	{r3, lr}
  32              		.cfi_def_cfa_offset 8
  33              		.cfi_offset 3, -8
  34              		.cfi_offset 14, -4
  33:can_manga_handlers.c ****     can_manga_message_update(&CURTIS_FAULT_CHECK, 0x0);
  35              		.loc 1 33 0
  36 0002 0248     		ldr	r0, .L3
  37 0004 0021     		movs	r1, #0
  38 0006 FFF7FEFF 		bl	can_manga_message_update
  39              	.LVL0:
  40 000a 08BD     		pop	{r3, pc}
  41              	.L4:
  42              		.align	2
  43              	.L3:
  44 000c 00000000 		.word	.LANCHOR0
  45              		.cfi_endproc
  46              	.LFE0:
  47              		.size	curtisFaultHandler, .-curtisFaultHandler
  48              		.section	.text.manga_getCurtisFaultCheck,"ax",%progbits
  49              		.align	2
  50              		.global	manga_getCurtisFaultCheck
  51              		.thumb
  52              		.thumb_func
  53              		.type	manga_getCurtisFaultCheck, %function
  54              	manga_getCurtisFaultCheck:
  55              	.LFB1:
  34:can_manga_handlers.c **** }
  35:can_manga_handlers.c **** 
  36:can_manga_handlers.c **** uint8_t manga_getCurtisFaultCheck()
  37:can_manga_handlers.c **** {
  56              		.loc 1 37 0
  57              		.cfi_startproc
  58              		@ args = 0, pretend = 0, frame = 0
  59              		@ frame_needed = 0, uses_anonymous_args = 0
  60              		@ link register save eliminated.
  38:can_manga_handlers.c ****     if (CURTIS_FAULT_CHECK.count == 0)
  61              		.loc 1 38 0
  62 0000 054B     		ldr	r3, .L8
  63 0002 1B68     		ldr	r3, [r3]
  64 0004 2BB1     		cbz	r3, .L7
  39:can_manga_handlers.c ****         return 0;
  40:can_manga_handlers.c ****     else
  41:can_manga_handlers.c ****     {
  42:can_manga_handlers.c ****         CURTIS_FAULT_CHECK.count -= 1;
  65              		.loc 1 42 0
  66 0006 044A     		ldr	r2, .L8
  67 0008 1368     		ldr	r3, [r2]
  68 000a 013B     		subs	r3, r3, #1
  69 000c 1360     		str	r3, [r2]
  43:can_manga_handlers.c ****         return 1; // Has a fault message available
  70              		.loc 1 43 0
  71 000e 0120     		movs	r0, #1
ARM GAS  C:\Users\Schuyler\AppData\Local\Temp\cc0AlsZs.s 			page 3


  72 0010 7047     		bx	lr
  73              	.L7:
  39:can_manga_handlers.c ****         return 0;
  74              		.loc 1 39 0
  75 0012 0020     		movs	r0, #0
  44:can_manga_handlers.c ****     }
  45:can_manga_handlers.c **** }
  76              		.loc 1 45 0
  77 0014 7047     		bx	lr
  78              	.L9:
  79 0016 00BF     		.align	2
  80              	.L8:
  81 0018 00000000 		.word	.LANCHOR0
  82              		.cfi_endproc
  83              	.LFE1:
  84              		.size	manga_getCurtisFaultCheck, .-manga_getCurtisFaultCheck
  85              		.section	.text.curtisHeartBeatHandler,"ax",%progbits
  86              		.align	2
  87              		.global	curtisHeartBeatHandler
  88              		.thumb
  89              		.thumb_func
  90              		.type	curtisHeartBeatHandler, %function
  91              	curtisHeartBeatHandler:
  92              	.LFB2:
  46:can_manga_handlers.c **** 
  47:can_manga_handlers.c **** void curtisHeartBeatHandler()
  48:can_manga_handlers.c **** {
  93              		.loc 1 48 0
  94              		.cfi_startproc
  95              		@ args = 0, pretend = 0, frame = 0
  96              		@ frame_needed = 0, uses_anonymous_args = 0
  97 0000 08B5     		push	{r3, lr}
  98              		.cfi_def_cfa_offset 8
  99              		.cfi_offset 3, -8
 100              		.cfi_offset 14, -4
  49:can_manga_handlers.c ****     can_manga_message_update(&CURTIS_HEART_BEAT_CHECK, 0x0);
 101              		.loc 1 49 0
 102 0002 0248     		ldr	r0, .L12
 103 0004 0021     		movs	r1, #0
 104 0006 FFF7FEFF 		bl	can_manga_message_update
 105              	.LVL1:
 106 000a 08BD     		pop	{r3, pc}
 107              	.L13:
 108              		.align	2
 109              	.L12:
 110 000c 08000000 		.word	.LANCHOR0+8
 111              		.cfi_endproc
 112              	.LFE2:
 113              		.size	curtisHeartBeatHandler, .-curtisHeartBeatHandler
 114              		.section	.text.manga_getCurtisHeartBeatCheck,"ax",%progbits
 115              		.align	2
 116              		.global	manga_getCurtisHeartBeatCheck
 117              		.thumb
 118              		.thumb_func
 119              		.type	manga_getCurtisHeartBeatCheck, %function
 120              	manga_getCurtisHeartBeatCheck:
 121              	.LFB3:
ARM GAS  C:\Users\Schuyler\AppData\Local\Temp\cc0AlsZs.s 			page 4


  50:can_manga_handlers.c **** }
  51:can_manga_handlers.c **** 
  52:can_manga_handlers.c **** uint8_t manga_getCurtisHeartBeatCheck()
  53:can_manga_handlers.c **** {
 122              		.loc 1 53 0
 123              		.cfi_startproc
 124              		@ args = 0, pretend = 0, frame = 0
 125              		@ frame_needed = 0, uses_anonymous_args = 0
 126              		@ link register save eliminated.
  54:can_manga_handlers.c ****     if (CURTIS_HEART_BEAT_CHECK.count == 0)
 127              		.loc 1 54 0
 128 0000 054B     		ldr	r3, .L17
 129 0002 9B68     		ldr	r3, [r3, #8]
 130 0004 2BB1     		cbz	r3, .L16
  55:can_manga_handlers.c ****         return 0;
  56:can_manga_handlers.c ****     else
  57:can_manga_handlers.c ****     {
  58:can_manga_handlers.c ****         CURTIS_HEART_BEAT_CHECK.count -= 1;
 131              		.loc 1 58 0
 132 0006 044A     		ldr	r2, .L17
 133 0008 9368     		ldr	r3, [r2, #8]
 134 000a 013B     		subs	r3, r3, #1
 135 000c 9360     		str	r3, [r2, #8]
  59:can_manga_handlers.c ****         return 1; // Has a heartbeat message available
 136              		.loc 1 59 0
 137 000e 0120     		movs	r0, #1
 138 0010 7047     		bx	lr
 139              	.L16:
  55:can_manga_handlers.c ****         return 0;
 140              		.loc 1 55 0
 141 0012 0020     		movs	r0, #0
  60:can_manga_handlers.c ****     }
  61:can_manga_handlers.c **** }
 142              		.loc 1 61 0
 143 0014 7047     		bx	lr
 144              	.L18:
 145 0016 00BF     		.align	2
 146              	.L17:
 147 0018 00000000 		.word	.LANCHOR0
 148              		.cfi_endproc
 149              	.LFE3:
 150              		.size	manga_getCurtisHeartBeatCheck, .-manga_getCurtisHeartBeatCheck
 151              		.section	.text.capacitorVoltHandler,"ax",%progbits
 152              		.align	2
 153              		.global	capacitorVoltHandler
 154              		.thumb
 155              		.thumb_func
 156              		.type	capacitorVoltHandler, %function
 157              	capacitorVoltHandler:
 158              	.LFB4:
  62:can_manga_handlers.c **** 
  63:can_manga_handlers.c **** // Handles capacitor voltage 
  64:can_manga_handlers.c **** void capacitorVoltHandler(CAN_RX_STRUCT msg)
  65:can_manga_handlers.c **** {
 159              		.loc 1 65 0
 160              		.cfi_startproc
 161              		@ args = 32, pretend = 16, frame = 0
ARM GAS  C:\Users\Schuyler\AppData\Local\Temp\cc0AlsZs.s 			page 5


 162              		@ frame_needed = 0, uses_anonymous_args = 0
 163 0000 84B0     		sub	sp, sp, #16
 164              		.cfi_def_cfa_offset 16
 165 0002 38B5     		push	{r3, r4, r5, lr}
 166              		.cfi_def_cfa_offset 32
 167              		.cfi_offset 3, -32
 168              		.cfi_offset 4, -28
 169              		.cfi_offset 5, -24
 170              		.cfi_offset 14, -20
 171 0004 04AC     		add	r4, sp, #16
 172 0006 84E80F00 		stmia	r4, {r0, r1, r2, r3}
  66:can_manga_handlers.c ****     uint8_t capacitorVolt = msg.rxdata.byte[CAN_DATA_BYTE_1];
 173              		.loc 1 66 0
 174 000a 9DF81B10 		ldrb	r1, [sp, #27]	@ zero_extendqisi2
 175              	.LVL2:
  67:can_manga_handlers.c ****     uint8_t absMotorRPM = msg.rxdata.byte[CAN_DATA_BYTE_5];
 176              		.loc 1 67 0
 177 000e 9DF81F40 		ldrb	r4, [sp, #31]	@ zero_extendqisi2
 178 0012 E4B2     		uxtb	r4, r4
 179              	.LVL3:
  68:can_manga_handlers.c ****     
  69:can_manga_handlers.c ****     can_manga_message_update(&CAPACITOR_VOLT, capacitorVolt);
 180              		.loc 1 69 0
 181 0014 064D     		ldr	r5, .L21
 182 0016 05F11000 		add	r0, r5, #16
 183 001a FFF7FEFF 		bl	can_manga_message_update
 184              	.LVL4:
  70:can_manga_handlers.c ****     can_manga_message_update(&ABS_MOTOR_RPM, absMotorRPM);
 185              		.loc 1 70 0
 186 001e 05F11800 		add	r0, r5, #24
 187 0022 2146     		mov	r1, r4
 188 0024 FFF7FEFF 		bl	can_manga_message_update
 189              	.LVL5:
  71:can_manga_handlers.c **** }
 190              		.loc 1 71 0
 191 0028 BDE83840 		pop	{r3, r4, r5, lr}
 192              		.cfi_restore 14
 193              		.cfi_restore 5
 194              		.cfi_restore 4
 195              		.cfi_restore 3
 196              		.cfi_def_cfa_offset 16
 197              	.LVL6:
 198 002c 04B0     		add	sp, sp, #16
 199              		.cfi_def_cfa_offset 0
 200 002e 7047     		bx	lr
 201              	.L22:
 202              		.align	2
 203              	.L21:
 204 0030 00000000 		.word	.LANCHOR0
 205              		.cfi_endproc
 206              	.LFE4:
 207              		.size	capacitorVoltHandler, .-capacitorVoltHandler
 208              		.section	.text.manga_getCapacitorVoltage,"ax",%progbits
 209              		.align	2
 210              		.global	manga_getCapacitorVoltage
 211              		.thumb
 212              		.thumb_func
ARM GAS  C:\Users\Schuyler\AppData\Local\Temp\cc0AlsZs.s 			page 6


 213              		.type	manga_getCapacitorVoltage, %function
 214              	manga_getCapacitorVoltage:
 215              	.LFB5:
  72:can_manga_handlers.c **** 
  73:can_manga_handlers.c **** uint8_t manga_getCapacitorVoltage()
  74:can_manga_handlers.c **** {
 216              		.loc 1 74 0
 217              		.cfi_startproc
 218              		@ args = 0, pretend = 0, frame = 0
 219              		@ frame_needed = 0, uses_anonymous_args = 0
 220              		@ link register save eliminated.
  75:can_manga_handlers.c ****     if (CAPACITOR_VOLT.count == 0)
 221              		.loc 1 75 0
 222 0000 054B     		ldr	r3, .L26
 223 0002 1B69     		ldr	r3, [r3, #16]
 224 0004 33B1     		cbz	r3, .L25
  76:can_manga_handlers.c ****         return 0;
  77:can_manga_handlers.c ****     else
  78:can_manga_handlers.c ****     {
  79:can_manga_handlers.c ****         CAPACITOR_VOLT.count -= 1;
 225              		.loc 1 79 0
 226 0006 044B     		ldr	r3, .L26
 227 0008 1A69     		ldr	r2, [r3, #16]
 228 000a 013A     		subs	r2, r2, #1
 229 000c 1A61     		str	r2, [r3, #16]
  80:can_manga_handlers.c ****         return CAPACITOR_VOLT.value;
 230              		.loc 1 80 0
 231 000e 187D     		ldrb	r0, [r3, #20]	@ zero_extendqisi2
 232 0010 C0B2     		uxtb	r0, r0
 233 0012 7047     		bx	lr
 234              	.L25:
  76:can_manga_handlers.c ****         return 0;
 235              		.loc 1 76 0
 236 0014 0020     		movs	r0, #0
  81:can_manga_handlers.c ****     }
  82:can_manga_handlers.c **** }
 237              		.loc 1 82 0
 238 0016 7047     		bx	lr
 239              	.L27:
 240              		.align	2
 241              	.L26:
 242 0018 00000000 		.word	.LANCHOR0
 243              		.cfi_endproc
 244              	.LFE5:
 245              		.size	manga_getCapacitorVoltage, .-manga_getCapacitorVoltage
 246              		.section	.text.manga_getAbsMotorRPM,"ax",%progbits
 247              		.align	2
 248              		.global	manga_getAbsMotorRPM
 249              		.thumb
 250              		.thumb_func
 251              		.type	manga_getAbsMotorRPM, %function
 252              	manga_getAbsMotorRPM:
 253              	.LFB6:
  83:can_manga_handlers.c **** 
  84:can_manga_handlers.c **** uint8_t manga_getAbsMotorRPM()
  85:can_manga_handlers.c **** {
 254              		.loc 1 85 0
ARM GAS  C:\Users\Schuyler\AppData\Local\Temp\cc0AlsZs.s 			page 7


 255              		.cfi_startproc
 256              		@ args = 0, pretend = 0, frame = 0
 257              		@ frame_needed = 0, uses_anonymous_args = 0
 258              		@ link register save eliminated.
  86:can_manga_handlers.c ****     if (ABS_MOTOR_RPM.count == 0)
 259              		.loc 1 86 0
 260 0000 054B     		ldr	r3, .L31
 261 0002 9B69     		ldr	r3, [r3, #24]
 262 0004 33B1     		cbz	r3, .L30
  87:can_manga_handlers.c ****         return 0;
  88:can_manga_handlers.c ****     else
  89:can_manga_handlers.c ****     {
  90:can_manga_handlers.c ****         ABS_MOTOR_RPM.count -= 1;
 263              		.loc 1 90 0
 264 0006 044B     		ldr	r3, .L31
 265 0008 9A69     		ldr	r2, [r3, #24]
 266 000a 013A     		subs	r2, r2, #1
 267 000c 9A61     		str	r2, [r3, #24]
  91:can_manga_handlers.c ****         return ABS_MOTOR_RPM.value;
 268              		.loc 1 91 0
 269 000e 187F     		ldrb	r0, [r3, #28]	@ zero_extendqisi2
 270 0010 C0B2     		uxtb	r0, r0
 271 0012 7047     		bx	lr
 272              	.L30:
  87:can_manga_handlers.c ****         return 0;
 273              		.loc 1 87 0
 274 0014 0020     		movs	r0, #0
  92:can_manga_handlers.c ****     }
  93:can_manga_handlers.c **** }
 275              		.loc 1 93 0
 276 0016 7047     		bx	lr
 277              	.L32:
 278              		.align	2
 279              	.L31:
 280 0018 00000000 		.word	.LANCHOR0
 281              		.cfi_endproc
 282              	.LFE6:
 283              		.size	manga_getAbsMotorRPM, .-manga_getAbsMotorRPM
 284              		.section	.text.ackReceivedHandler,"ax",%progbits
 285              		.align	2
 286              		.global	ackReceivedHandler
 287              		.thumb
 288              		.thumb_func
 289              		.type	ackReceivedHandler, %function
 290              	ackReceivedHandler:
 291              	.LFB7:
  94:can_manga_handlers.c **** 
  95:can_manga_handlers.c **** 
  96:can_manga_handlers.c **** void ackReceivedHandler(CAN_RX_STRUCT msg)
  97:can_manga_handlers.c **** {
 292              		.loc 1 97 0
 293              		.cfi_startproc
 294              		@ args = 32, pretend = 16, frame = 0
 295              		@ frame_needed = 0, uses_anonymous_args = 0
 296 0000 84B0     		sub	sp, sp, #16
 297              		.cfi_def_cfa_offset 16
 298 0002 08B5     		push	{r3, lr}
ARM GAS  C:\Users\Schuyler\AppData\Local\Temp\cc0AlsZs.s 			page 8


 299              		.cfi_def_cfa_offset 24
 300              		.cfi_offset 3, -24
 301              		.cfi_offset 14, -20
 302 0004 0DF1080E 		add	lr, sp, #8
 303 0008 8EE80F00 		stmia	lr, {r0, r1, r2, r3}
  98:can_manga_handlers.c ****     uint8_t ackRx = msg.rxdata.byte[CAN_DATA_BYTE_1];
 304              		.loc 1 98 0
 305 000c 9DF81310 		ldrb	r1, [sp, #19]	@ zero_extendqisi2
 306              	.LVL7:
  99:can_manga_handlers.c **** 
 100:can_manga_handlers.c ****     can_manga_message_update(&ACK_RX, ackRx);
 307              		.loc 1 100 0
 308 0010 0348     		ldr	r0, .L35
 309 0012 FFF7FEFF 		bl	can_manga_message_update
 310              	.LVL8:
 101:can_manga_handlers.c **** }
 311              		.loc 1 101 0
 312 0016 BDE80840 		pop	{r3, lr}
 313              		.cfi_restore 14
 314              		.cfi_restore 3
 315              		.cfi_def_cfa_offset 16
 316 001a 04B0     		add	sp, sp, #16
 317              		.cfi_def_cfa_offset 0
 318 001c 7047     		bx	lr
 319              	.L36:
 320 001e 00BF     		.align	2
 321              	.L35:
 322 0020 20000000 		.word	.LANCHOR0+32
 323              		.cfi_endproc
 324              	.LFE7:
 325              		.size	ackReceivedHandler, .-ackReceivedHandler
 326              		.section	.text.manga_getAckReceive,"ax",%progbits
 327              		.align	2
 328              		.global	manga_getAckReceive
 329              		.thumb
 330              		.thumb_func
 331              		.type	manga_getAckReceive, %function
 332              	manga_getAckReceive:
 333              	.LFB8:
 102:can_manga_handlers.c **** 
 103:can_manga_handlers.c **** uint8_t manga_getAckReceive()
 104:can_manga_handlers.c **** {
 334              		.loc 1 104 0
 335              		.cfi_startproc
 336              		@ args = 0, pretend = 0, frame = 0
 337              		@ frame_needed = 0, uses_anonymous_args = 0
 338              		@ link register save eliminated.
 105:can_manga_handlers.c ****     if (ACK_RX.count == 0)
 339              		.loc 1 105 0
 340 0000 064B     		ldr	r3, .L40
 341 0002 1B6A     		ldr	r3, [r3, #32]
 342 0004 3BB1     		cbz	r3, .L39
 106:can_manga_handlers.c ****         return 0;
 107:can_manga_handlers.c ****     else
 108:can_manga_handlers.c ****     {
 109:can_manga_handlers.c ****         ACK_RX.count -= 1;
 343              		.loc 1 109 0
ARM GAS  C:\Users\Schuyler\AppData\Local\Temp\cc0AlsZs.s 			page 9


 344 0006 054B     		ldr	r3, .L40
 345 0008 1A6A     		ldr	r2, [r3, #32]
 346 000a 013A     		subs	r2, r2, #1
 347 000c 1A62     		str	r2, [r3, #32]
 110:can_manga_handlers.c ****         return ACK_RX.value;
 348              		.loc 1 110 0
 349 000e 93F82400 		ldrb	r0, [r3, #36]	@ zero_extendqisi2
 350 0012 C0B2     		uxtb	r0, r0
 351 0014 7047     		bx	lr
 352              	.L39:
 106:can_manga_handlers.c ****         return 0;
 353              		.loc 1 106 0
 354 0016 0020     		movs	r0, #0
 111:can_manga_handlers.c ****     }
 112:can_manga_handlers.c **** }
 355              		.loc 1 112 0
 356 0018 7047     		bx	lr
 357              	.L41:
 358 001a 00BF     		.align	2
 359              	.L40:
 360 001c 00000000 		.word	.LANCHOR0
 361              		.cfi_endproc
 362              	.LFE8:
 363              		.size	manga_getAckReceive, .-manga_getAckReceive
 364              		.section	.text.errorToleranceHandler,"ax",%progbits
 365              		.align	2
 366              		.global	errorToleranceHandler
 367              		.thumb
 368              		.thumb_func
 369              		.type	errorToleranceHandler, %function
 370              	errorToleranceHandler:
 371              	.LFB9:
 113:can_manga_handlers.c **** 
 114:can_manga_handlers.c **** void errorToleranceHandler(CAN_RX_STRUCT msg)
 115:can_manga_handlers.c **** {
 372              		.loc 1 115 0
 373              		.cfi_startproc
 374              		@ args = 32, pretend = 16, frame = 0
 375              		@ frame_needed = 0, uses_anonymous_args = 0
 376 0000 84B0     		sub	sp, sp, #16
 377              		.cfi_def_cfa_offset 16
 378 0002 08B5     		push	{r3, lr}
 379              		.cfi_def_cfa_offset 24
 380              		.cfi_offset 3, -24
 381              		.cfi_offset 14, -20
 382 0004 0DF1080E 		add	lr, sp, #8
 383 0008 8EE80F00 		stmia	lr, {r0, r1, r2, r3}
 116:can_manga_handlers.c ****     uint8_t errotTolerance = msg.rxdata.byte[CAN_DATA_BYTE_1];
 384              		.loc 1 116 0
 385 000c 9DF81310 		ldrb	r1, [sp, #19]	@ zero_extendqisi2
 386              	.LVL9:
 117:can_manga_handlers.c **** 
 118:can_manga_handlers.c ****     can_manga_message_update(&ERROR_TOLERANCE, errotTolerance);
 387              		.loc 1 118 0
 388 0010 0348     		ldr	r0, .L44
 389 0012 FFF7FEFF 		bl	can_manga_message_update
 390              	.LVL10:
ARM GAS  C:\Users\Schuyler\AppData\Local\Temp\cc0AlsZs.s 			page 10


 119:can_manga_handlers.c **** }
 391              		.loc 1 119 0
 392 0016 BDE80840 		pop	{r3, lr}
 393              		.cfi_restore 14
 394              		.cfi_restore 3
 395              		.cfi_def_cfa_offset 16
 396 001a 04B0     		add	sp, sp, #16
 397              		.cfi_def_cfa_offset 0
 398 001c 7047     		bx	lr
 399              	.L45:
 400 001e 00BF     		.align	2
 401              	.L44:
 402 0020 28000000 		.word	.LANCHOR0+40
 403              		.cfi_endproc
 404              	.LFE9:
 405              		.size	errorToleranceHandler, .-errorToleranceHandler
 406              		.section	.text.manga_getErrorTolerance,"ax",%progbits
 407              		.align	2
 408              		.global	manga_getErrorTolerance
 409              		.thumb
 410              		.thumb_func
 411              		.type	manga_getErrorTolerance, %function
 412              	manga_getErrorTolerance:
 413              	.LFB10:
 120:can_manga_handlers.c **** 
 121:can_manga_handlers.c **** uint8_t manga_getErrorTolerance()
 122:can_manga_handlers.c **** {
 414              		.loc 1 122 0
 415              		.cfi_startproc
 416              		@ args = 0, pretend = 0, frame = 0
 417              		@ frame_needed = 0, uses_anonymous_args = 0
 418              		@ link register save eliminated.
 123:can_manga_handlers.c ****     if (ERROR_TOLERANCE.count == 0)
 419              		.loc 1 123 0
 420 0000 064B     		ldr	r3, .L49
 421 0002 9B6A     		ldr	r3, [r3, #40]
 422 0004 3BB1     		cbz	r3, .L48
 124:can_manga_handlers.c ****         return 0;
 125:can_manga_handlers.c ****     else
 126:can_manga_handlers.c ****     {
 127:can_manga_handlers.c ****         ERROR_TOLERANCE.count -= 1;
 423              		.loc 1 127 0
 424 0006 054B     		ldr	r3, .L49
 425 0008 9A6A     		ldr	r2, [r3, #40]
 426 000a 013A     		subs	r2, r2, #1
 427 000c 9A62     		str	r2, [r3, #40]
 128:can_manga_handlers.c ****         return ERROR_TOLERANCE.value;
 428              		.loc 1 128 0
 429 000e 93F82C00 		ldrb	r0, [r3, #44]	@ zero_extendqisi2
 430 0012 C0B2     		uxtb	r0, r0
 431 0014 7047     		bx	lr
 432              	.L48:
 124:can_manga_handlers.c ****         return 0;
 433              		.loc 1 124 0
 434 0016 0020     		movs	r0, #0
 129:can_manga_handlers.c ****     }
 130:can_manga_handlers.c **** }
ARM GAS  C:\Users\Schuyler\AppData\Local\Temp\cc0AlsZs.s 			page 11


 435              		.loc 1 130 0
 436 0018 7047     		bx	lr
 437              	.L50:
 438 001a 00BF     		.align	2
 439              	.L49:
 440 001c 00000000 		.word	.LANCHOR0
 441              		.cfi_endproc
 442              	.LFE10:
 443              		.size	manga_getErrorTolerance, .-manga_getErrorTolerance
 444              		.section	.text.throttleHandler,"ax",%progbits
 445              		.align	2
 446              		.global	throttleHandler
 447              		.thumb
 448              		.thumb_func
 449              		.type	throttleHandler, %function
 450              	throttleHandler:
 451              	.LFB11:
 131:can_manga_handlers.c **** 
 132:can_manga_handlers.c **** void throttleHandler(CAN_RX_STRUCT msg)
 133:can_manga_handlers.c **** {
 452              		.loc 1 133 0
 453              		.cfi_startproc
 454              		@ args = 32, pretend = 16, frame = 0
 455              		@ frame_needed = 0, uses_anonymous_args = 0
 456 0000 84B0     		sub	sp, sp, #16
 457              		.cfi_def_cfa_offset 16
 458 0002 38B5     		push	{r3, r4, r5, lr}
 459              		.cfi_def_cfa_offset 32
 460              		.cfi_offset 3, -32
 461              		.cfi_offset 4, -28
 462              		.cfi_offset 5, -24
 463              		.cfi_offset 14, -20
 464 0004 04AC     		add	r4, sp, #16
 465 0006 84E80F00 		stmia	r4, {r0, r1, r2, r3}
 134:can_manga_handlers.c ****     uint8_t throttleHigh = msg.rxdata.byte[CAN_DATA_BYTE_2];
 466              		.loc 1 134 0
 467 000a 9DF81A10 		ldrb	r1, [sp, #26]	@ zero_extendqisi2
 468              	.LVL11:
 135:can_manga_handlers.c ****     uint8_t throttleLow = msg.rxdata.byte[CAN_DATA_BYTE_3];
 469              		.loc 1 135 0
 470 000e 9DF81940 		ldrb	r4, [sp, #25]	@ zero_extendqisi2
 471 0012 E4B2     		uxtb	r4, r4
 472              	.LVL12:
 136:can_manga_handlers.c ****     
 137:can_manga_handlers.c ****     can_manga_message_update(&THROTTLE_HIGH, throttleHigh);
 473              		.loc 1 137 0
 474 0014 064D     		ldr	r5, .L53
 475 0016 05F13000 		add	r0, r5, #48
 476 001a FFF7FEFF 		bl	can_manga_message_update
 477              	.LVL13:
 138:can_manga_handlers.c ****     can_manga_message_update(&THROTTLE_LOW, throttleLow);
 478              		.loc 1 138 0
 479 001e 05F13800 		add	r0, r5, #56
 480 0022 2146     		mov	r1, r4
 481 0024 FFF7FEFF 		bl	can_manga_message_update
 482              	.LVL14:
 139:can_manga_handlers.c **** }
ARM GAS  C:\Users\Schuyler\AppData\Local\Temp\cc0AlsZs.s 			page 12


 483              		.loc 1 139 0
 484 0028 BDE83840 		pop	{r3, r4, r5, lr}
 485              		.cfi_restore 14
 486              		.cfi_restore 5
 487              		.cfi_restore 4
 488              		.cfi_restore 3
 489              		.cfi_def_cfa_offset 16
 490              	.LVL15:
 491 002c 04B0     		add	sp, sp, #16
 492              		.cfi_def_cfa_offset 0
 493 002e 7047     		bx	lr
 494              	.L54:
 495              		.align	2
 496              	.L53:
 497 0030 00000000 		.word	.LANCHOR0
 498              		.cfi_endproc
 499              	.LFE11:
 500              		.size	throttleHandler, .-throttleHandler
 501              		.section	.text.manga_getThrottleLow,"ax",%progbits
 502              		.align	2
 503              		.global	manga_getThrottleLow
 504              		.thumb
 505              		.thumb_func
 506              		.type	manga_getThrottleLow, %function
 507              	manga_getThrottleLow:
 508              	.LFB12:
 140:can_manga_handlers.c **** 
 141:can_manga_handlers.c **** uint8_t manga_getThrottleLow()
 142:can_manga_handlers.c **** {
 509              		.loc 1 142 0
 510              		.cfi_startproc
 511              		@ args = 0, pretend = 0, frame = 0
 512              		@ frame_needed = 0, uses_anonymous_args = 0
 513              		@ link register save eliminated.
 143:can_manga_handlers.c ****     if (THROTTLE_LOW.count == 0)
 514              		.loc 1 143 0
 515 0000 064B     		ldr	r3, .L58
 516 0002 9B6B     		ldr	r3, [r3, #56]
 517 0004 3BB1     		cbz	r3, .L57
 144:can_manga_handlers.c ****         return 0;
 145:can_manga_handlers.c ****     else
 146:can_manga_handlers.c ****     {
 147:can_manga_handlers.c ****         THROTTLE_LOW.count -= 1;
 518              		.loc 1 147 0
 519 0006 054B     		ldr	r3, .L58
 520 0008 9A6B     		ldr	r2, [r3, #56]
 521 000a 013A     		subs	r2, r2, #1
 522 000c 9A63     		str	r2, [r3, #56]
 148:can_manga_handlers.c ****         return THROTTLE_LOW.value;
 523              		.loc 1 148 0
 524 000e 93F83C00 		ldrb	r0, [r3, #60]	@ zero_extendqisi2
 525 0012 C0B2     		uxtb	r0, r0
 526 0014 7047     		bx	lr
 527              	.L57:
 144:can_manga_handlers.c ****         return 0;
 528              		.loc 1 144 0
 529 0016 0020     		movs	r0, #0
ARM GAS  C:\Users\Schuyler\AppData\Local\Temp\cc0AlsZs.s 			page 13


 149:can_manga_handlers.c ****     }
 150:can_manga_handlers.c **** }
 530              		.loc 1 150 0
 531 0018 7047     		bx	lr
 532              	.L59:
 533 001a 00BF     		.align	2
 534              	.L58:
 535 001c 00000000 		.word	.LANCHOR0
 536              		.cfi_endproc
 537              	.LFE12:
 538              		.size	manga_getThrottleLow, .-manga_getThrottleLow
 539              		.section	.text.manga_getThrottleHigh,"ax",%progbits
 540              		.align	2
 541              		.global	manga_getThrottleHigh
 542              		.thumb
 543              		.thumb_func
 544              		.type	manga_getThrottleHigh, %function
 545              	manga_getThrottleHigh:
 546              	.LFB13:
 151:can_manga_handlers.c **** 
 152:can_manga_handlers.c **** uint8_t manga_getThrottleHigh()
 153:can_manga_handlers.c **** {
 547              		.loc 1 153 0
 548              		.cfi_startproc
 549              		@ args = 0, pretend = 0, frame = 0
 550              		@ frame_needed = 0, uses_anonymous_args = 0
 551              		@ link register save eliminated.
 154:can_manga_handlers.c ****     if (THROTTLE_HIGH.count == 0)
 552              		.loc 1 154 0
 553 0000 064B     		ldr	r3, .L63
 554 0002 1B6B     		ldr	r3, [r3, #48]
 555 0004 3BB1     		cbz	r3, .L62
 155:can_manga_handlers.c ****         return 0;
 156:can_manga_handlers.c ****     else
 157:can_manga_handlers.c ****     {
 158:can_manga_handlers.c ****         THROTTLE_HIGH.count -= 1;
 556              		.loc 1 158 0
 557 0006 054B     		ldr	r3, .L63
 558 0008 1A6B     		ldr	r2, [r3, #48]
 559 000a 013A     		subs	r2, r2, #1
 560 000c 1A63     		str	r2, [r3, #48]
 159:can_manga_handlers.c ****         return THROTTLE_HIGH.value;
 561              		.loc 1 159 0
 562 000e 93F83400 		ldrb	r0, [r3, #52]	@ zero_extendqisi2
 563 0012 C0B2     		uxtb	r0, r0
 564 0014 7047     		bx	lr
 565              	.L62:
 155:can_manga_handlers.c ****         return 0;
 566              		.loc 1 155 0
 567 0016 0020     		movs	r0, #0
 160:can_manga_handlers.c ****     }
 161:can_manga_handlers.c **** }
 568              		.loc 1 161 0
 569 0018 7047     		bx	lr
 570              	.L64:
 571 001a 00BF     		.align	2
 572              	.L63:
ARM GAS  C:\Users\Schuyler\AppData\Local\Temp\cc0AlsZs.s 			page 14


 573 001c 00000000 		.word	.LANCHOR0
 574              		.cfi_endproc
 575              	.LFE13:
 576              		.size	manga_getThrottleHigh, .-manga_getThrottleHigh
 577              		.global	THROTTLE_LOW
 578              		.global	THROTTLE_HIGH
 579              		.global	ABS_MOTOR_RPM
 580              		.global	ERROR_TOLERANCE
 581              		.global	ACK_RX
 582              		.global	CURTIS_HEART_BEAT_CHECK
 583              		.global	CURTIS_FAULT_CHECK
 584              		.global	CAPACITOR_VOLT
 585              		.bss
 586              		.align	2
 587              		.set	.LANCHOR0,. + 0
 588              		.type	CURTIS_FAULT_CHECK, %object
 589              		.size	CURTIS_FAULT_CHECK, 8
 590              	CURTIS_FAULT_CHECK:
 591 0000 00000000 		.space	8
 591      00000000 
 592              		.type	CURTIS_HEART_BEAT_CHECK, %object
 593              		.size	CURTIS_HEART_BEAT_CHECK, 8
 594              	CURTIS_HEART_BEAT_CHECK:
 595 0008 00000000 		.space	8
 595      00000000 
 596              		.type	CAPACITOR_VOLT, %object
 597              		.size	CAPACITOR_VOLT, 8
 598              	CAPACITOR_VOLT:
 599 0010 00000000 		.space	8
 599      00000000 
 600              		.type	ABS_MOTOR_RPM, %object
 601              		.size	ABS_MOTOR_RPM, 8
 602              	ABS_MOTOR_RPM:
 603 0018 00000000 		.space	8
 603      00000000 
 604              		.type	ACK_RX, %object
 605              		.size	ACK_RX, 8
 606              	ACK_RX:
 607 0020 00000000 		.space	8
 607      00000000 
 608              		.type	ERROR_TOLERANCE, %object
 609              		.size	ERROR_TOLERANCE, 8
 610              	ERROR_TOLERANCE:
 611 0028 00000000 		.space	8
 611      00000000 
 612              		.type	THROTTLE_HIGH, %object
 613              		.size	THROTTLE_HIGH, 8
 614              	THROTTLE_HIGH:
 615 0030 00000000 		.space	8
 615      00000000 
 616              		.type	THROTTLE_LOW, %object
 617              		.size	THROTTLE_LOW, 8
 618              	THROTTLE_LOW:
 619 0038 00000000 		.space	8
 619      00000000 
 620              		.text
 621              	.Letext0:
ARM GAS  C:\Users\Schuyler\AppData\Local\Temp\cc0AlsZs.s 			page 15


 622              		.file 2 "c:\\program files (x86)\\cypress\\psoc creator\\4.0\\psoc creator\\import\\gnu\\arm\\4.9.
 623              		.file 3 "c:\\program files (x86)\\cypress\\psoc creator\\4.0\\psoc creator\\import\\gnu\\arm\\4.9.
 624              		.file 4 "Generated_Source\\PSoC5/cytypes.h"
 625              		.file 5 "Generated_Source\\PSoC5/CAN.h"
 626              		.file 6 "can_manga.h"