ARM GAS  C:\Users\Sirius\AppData\Local\Temp\ccB2Noza.s 			page 1


   1              		.syntax unified
   2              		.cpu cortex-m3
   3              		.fpu softvfp
   4              		.eabi_attribute 20, 1
   5              		.eabi_attribute 21, 1
   6              		.eabi_attribute 23, 3
   7              		.eabi_attribute 24, 1
   8              		.eabi_attribute 25, 1
   9              		.eabi_attribute 26, 1
  10              		.eabi_attribute 30, 1
  11              		.eabi_attribute 34, 1
  12              		.eabi_attribute 18, 4
  13              		.thumb
  14              		.file	"can_manager.c"
  15              		.text
  16              	.Ltext0:
  17              		.cfi_sections	.debug_frame
  18              		.section	.text.can_send_cmd,"ax",%progbits
  19              		.align	2
  20              		.global	can_send_cmd
  21              		.thumb
  22              		.thumb_func
  23              		.type	can_send_cmd, %function
  24              	can_send_cmd:
  25              	.LFB63:
  26              		.file 1 ".\\can_manager.c"
   1:.\can_manager.c **** #include "can_manager.h"
   2:.\can_manager.c **** 
   3:.\can_manager.c **** volatile uint8_t can_buffer[8];
   4:.\can_manager.c **** volatile DataPacket can_queue[CAN_QUEUE_LENGTH];
   5:.\can_manager.c **** volatile uint16_t can_head = 0, can_tail = 0;
   6:.\can_manager.c **** 
   7:.\can_manager.c **** void can_send_cmd(
   8:.\can_manager.c ****     uint8_t SetInterlock,
   9:.\can_manager.c ****     uint16_t VCL_Throttle_High,
  10:.\can_manager.c ****     uint16_t VCL_Throttle_Low
  11:.\can_manager.c **** )
  12:.\can_manager.c **** {
  27              		.loc 1 12 0
  28              		.cfi_startproc
  29              		@ args = 0, pretend = 0, frame = 0
  30              		@ frame_needed = 0, uses_anonymous_args = 0
  31              	.LVL0:
  32 0000 08B5     		push	{r3, lr}
  33              		.cfi_def_cfa_offset 8
  34              		.cfi_offset 3, -8
  35              		.cfi_offset 14, -4
  13:.\can_manager.c ****     //max and min voltage means the voltage of single cell
  14:.\can_manager.c ****         can_buffer[0] = SetInterlock;
  36              		.loc 1 14 0
  37 0002 094B     		ldr	r3, .L3
  38 0004 1870     		strb	r0, [r3]
  15:.\can_manager.c ****         
  16:.\can_manager.c ****         can_buffer[1] = VCL_Throttle_High;
  39              		.loc 1 16 0
  40 0006 C9B2     		uxtb	r1, r1
  41              	.LVL1:
ARM GAS  C:\Users\Sirius\AppData\Local\Temp\ccB2Noza.s 			page 2


  42 0008 5970     		strb	r1, [r3, #1]
  17:.\can_manager.c ****         can_buffer[2] = VCL_Throttle_Low;
  43              		.loc 1 17 0
  44 000a D2B2     		uxtb	r2, r2
  45              	.LVL2:
  46 000c 9A70     		strb	r2, [r3, #2]
  18:.\can_manager.c ****         
  19:.\can_manager.c ****         can_buffer[3] = 0;
  47              		.loc 1 19 0
  48 000e 0022     		movs	r2, #0
  49 0010 DA70     		strb	r2, [r3, #3]
  20:.\can_manager.c ****         can_buffer[4] = 0;
  50              		.loc 1 20 0
  51 0012 1A71     		strb	r2, [r3, #4]
  21:.\can_manager.c ****         
  22:.\can_manager.c ****         can_buffer[5] = 0;
  52              		.loc 1 22 0
  53 0014 5A71     		strb	r2, [r3, #5]
  23:.\can_manager.c ****         can_buffer[6] = 0;
  54              		.loc 1 23 0
  55 0016 9A71     		strb	r2, [r3, #6]
  24:.\can_manager.c ****         can_buffer[7] = 0;
  56              		.loc 1 24 0
  57 0018 DA71     		strb	r2, [r3, #7]
  25:.\can_manager.c **** 
  26:.\can_manager.c ****         CAN_SendMsgDash_cmd();
  58              		.loc 1 26 0
  59 001a FFF7FEFF 		bl	CAN_SendMsgDash_cmd
  60              	.LVL3:
  27:.\can_manager.c ****         CyDelay(1);
  61              		.loc 1 27 0
  62 001e 0120     		movs	r0, #1
  63 0020 FFF7FEFF 		bl	CyDelay
  64              	.LVL4:
  65 0024 08BD     		pop	{r3, pc}
  66              	.L4:
  67 0026 00BF     		.align	2
  68              	.L3:
  69 0028 00000000 		.word	can_buffer
  70              		.cfi_endproc
  71              	.LFE63:
  72              		.size	can_send_cmd, .-can_send_cmd
  73              		.section	.text.can_send_status,"ax",%progbits
  74              		.align	2
  75              		.global	can_send_status
  76              		.thumb
  77              		.thumb_func
  78              		.type	can_send_status, %function
  79              	can_send_status:
  80              	.LFB64:
  28:.\can_manager.c **** 
  29:.\can_manager.c **** } // can_send_cmd()
  30:.\can_manager.c **** 
  31:.\can_manager.c **** 
  32:.\can_manager.c **** void can_send_status(
  33:.\can_manager.c ****     uint8_t state)
  34:.\can_manager.c **** {
ARM GAS  C:\Users\Sirius\AppData\Local\Temp\ccB2Noza.s 			page 3


  81              		.loc 1 34 0
  82              		.cfi_startproc
  83              		@ args = 0, pretend = 0, frame = 0
  84              		@ frame_needed = 0, uses_anonymous_args = 0
  85              	.LVL5:
  86 0000 08B5     		push	{r3, lr}
  87              		.cfi_def_cfa_offset 8
  88              		.cfi_offset 3, -8
  89              		.cfi_offset 14, -4
  35:.\can_manager.c ****     //max and min voltage means the voltage of single cell
  36:.\can_manager.c ****         can_buffer[0] = state;
  90              		.loc 1 36 0
  91 0002 064B     		ldr	r3, .L7
  92 0004 1870     		strb	r0, [r3]
  37:.\can_manager.c ****         can_buffer[1] = 0;
  93              		.loc 1 37 0
  94 0006 0022     		movs	r2, #0
  95 0008 5A70     		strb	r2, [r3, #1]
  38:.\can_manager.c **** 
  39:.\can_manager.c ****         can_buffer[2] = 0;
  96              		.loc 1 39 0
  97 000a 9A70     		strb	r2, [r3, #2]
  40:.\can_manager.c ****         can_buffer[3] = 0;
  98              		.loc 1 40 0
  99 000c DA70     		strb	r2, [r3, #3]
  41:.\can_manager.c **** 
  42:.\can_manager.c ****         can_buffer[4] = 0;
 100              		.loc 1 42 0
 101 000e 1A71     		strb	r2, [r3, #4]
  43:.\can_manager.c ****         can_buffer[5] = 0;
 102              		.loc 1 43 0
 103 0010 5A71     		strb	r2, [r3, #5]
  44:.\can_manager.c ****         can_buffer[6] = 0;
 104              		.loc 1 44 0
 105 0012 9A71     		strb	r2, [r3, #6]
  45:.\can_manager.c ****         can_buffer[7] = 0;
 106              		.loc 1 45 0
 107 0014 DA71     		strb	r2, [r3, #7]
  46:.\can_manager.c **** 
  47:.\can_manager.c ****         //uint8_t atomic_state = CyEnterCriticalSection(); // BEGIN ATOMIC
  48:.\can_manager.c ****         CAN_SendMsgDash_status();
 108              		.loc 1 48 0
 109 0016 FFF7FEFF 		bl	CAN_SendMsgDash_status
 110              	.LVL6:
 111 001a 08BD     		pop	{r3, pc}
 112              	.L8:
 113              		.align	2
 114              	.L7:
 115 001c 00000000 		.word	can_buffer
 116              		.cfi_endproc
 117              	.LFE64:
 118              		.size	can_send_status, .-can_send_status
 119              		.section	.text.can_get,"ax",%progbits
 120              		.align	2
 121              		.global	can_get
 122              		.thumb
 123              		.thumb_func
ARM GAS  C:\Users\Sirius\AppData\Local\Temp\ccB2Noza.s 			page 4


 124              		.type	can_get, %function
 125              	can_get:
 126              	.LFB65:
  49:.\can_manager.c ****         //CyDelay(100);
  50:.\can_manager.c ****         //CyExitCriticalSection(atomic_state); // END ATOMIC
  51:.\can_manager.c ****         
  52:.\can_manager.c **** } // can_send_status()
  53:.\can_manager.c **** 
  54:.\can_manager.c **** void can_get(DataPacket* data_queue, uint16_t* data_head, uint16_t* data_tail)
  55:.\can_manager.c **** {
 127              		.loc 1 55 0
 128              		.cfi_startproc
 129              		@ args = 0, pretend = 0, frame = 0
 130              		@ frame_needed = 0, uses_anonymous_args = 0
 131              	.LVL7:
 132 0000 F8B5     		push	{r3, r4, r5, r6, r7, lr}
 133              		.cfi_def_cfa_offset 24
 134              		.cfi_offset 3, -24
 135              		.cfi_offset 4, -20
 136              		.cfi_offset 5, -16
 137              		.cfi_offset 6, -12
 138              		.cfi_offset 7, -8
 139              		.cfi_offset 14, -4
 140 0002 0546     		mov	r5, r0
 141 0004 0E46     		mov	r6, r1
 142 0006 1446     		mov	r4, r2
  56:.\can_manager.c ****     //CAN_GlobalIntEnable();
  57:.\can_manager.c **** 	*data_head = *data_tail = 0;
 143              		.loc 1 57 0
 144 0008 0023     		movs	r3, #0
 145 000a 1380     		strh	r3, [r2]	@ movhi
 146 000c 0B80     		strh	r3, [r1]	@ movhi
  58:.\can_manager.c **** 
  59:.\can_manager.c **** 	uint8_t atomic_state = CyEnterCriticalSection(); // BEGIN ATOMIC
 147              		.loc 1 59 0
 148 000e FFF7FEFF 		bl	CyEnterCriticalSection
 149              	.LVL8:
  60:.\can_manager.c **** 
  61:.\can_manager.c **** 	while(can_head != can_tail) // move and convert can message queue to data queue
 150              		.loc 1 61 0
 151 0012 8CE0     		b	.L13
 152              	.L15:
  62:.\can_manager.c **** 	{
  63:.\can_manager.c **** 		data_queue[*data_tail].id = can_queue[can_head].id;
 153              		.loc 1 63 0
 154 0014 2788     		ldrh	r7, [r4]
 155 0016 05EB0717 		add	r7, r5, r7, lsl #4
 156 001a 4C4A     		ldr	r2, .L17
 157 001c 1188     		ldrh	r1, [r2]
 158 001e 89B2     		uxth	r1, r1
 159 0020 4B4B     		ldr	r3, .L17+4
 160 0022 03EB0111 		add	r1, r3, r1, lsl #4
 161 0026 8988     		ldrh	r1, [r1, #4]
 162 0028 B980     		strh	r1, [r7, #4]	@ movhi
  64:.\can_manager.c **** 		data_queue[*data_tail].length = can_queue[can_head].length;
 163              		.loc 1 64 0
 164 002a 2788     		ldrh	r7, [r4]
ARM GAS  C:\Users\Sirius\AppData\Local\Temp\ccB2Noza.s 			page 5


 165 002c 05EB0717 		add	r7, r5, r7, lsl #4
 166 0030 1188     		ldrh	r1, [r2]
 167 0032 89B2     		uxth	r1, r1
 168 0034 03EB0111 		add	r1, r3, r1, lsl #4
 169 0038 8979     		ldrb	r1, [r1, #6]	@ zero_extendqisi2
 170 003a B971     		strb	r1, [r7, #6]
  65:.\can_manager.c **** 		data_queue[*data_tail].millicounter = can_queue[can_head].millicounter;
 171              		.loc 1 65 0
 172 003c 2788     		ldrh	r7, [r4]
 173 003e 3F01     		lsls	r7, r7, #4
 174 0040 1188     		ldrh	r1, [r2]
 175 0042 89B2     		uxth	r1, r1
 176 0044 0901     		lsls	r1, r1, #4
 177 0046 5958     		ldr	r1, [r3, r1]
 178 0048 E951     		str	r1, [r5, r7]
  66:.\can_manager.c **** 
  67:.\can_manager.c **** 		data_queue[*data_tail].data[0] = can_queue[can_head].data[0];
 179              		.loc 1 67 0
 180 004a 2788     		ldrh	r7, [r4]
 181 004c 05EB0717 		add	r7, r5, r7, lsl #4
 182 0050 1188     		ldrh	r1, [r2]
 183 0052 89B2     		uxth	r1, r1
 184 0054 03EB0111 		add	r1, r3, r1, lsl #4
 185 0058 C979     		ldrb	r1, [r1, #7]	@ zero_extendqisi2
 186 005a F971     		strb	r1, [r7, #7]
  68:.\can_manager.c **** 		data_queue[*data_tail].data[1] = can_queue[can_head].data[1];
 187              		.loc 1 68 0
 188 005c 2788     		ldrh	r7, [r4]
 189 005e 05EB0717 		add	r7, r5, r7, lsl #4
 190 0062 1188     		ldrh	r1, [r2]
 191 0064 89B2     		uxth	r1, r1
 192 0066 03EB0111 		add	r1, r3, r1, lsl #4
 193 006a 0131     		adds	r1, r1, #1
 194 006c C979     		ldrb	r1, [r1, #7]	@ zero_extendqisi2
 195 006e 3972     		strb	r1, [r7, #8]
  69:.\can_manager.c **** 		data_queue[*data_tail].data[2] = can_queue[can_head].data[2];
 196              		.loc 1 69 0
 197 0070 2788     		ldrh	r7, [r4]
 198 0072 05EB0717 		add	r7, r5, r7, lsl #4
 199 0076 1188     		ldrh	r1, [r2]
 200 0078 89B2     		uxth	r1, r1
 201 007a 03EB0111 		add	r1, r3, r1, lsl #4
 202 007e 0231     		adds	r1, r1, #2
 203 0080 C979     		ldrb	r1, [r1, #7]	@ zero_extendqisi2
 204 0082 7972     		strb	r1, [r7, #9]
  70:.\can_manager.c **** 		data_queue[*data_tail].data[3] = can_queue[can_head].data[3];
 205              		.loc 1 70 0
 206 0084 2788     		ldrh	r7, [r4]
 207 0086 05EB0717 		add	r7, r5, r7, lsl #4
 208 008a 1188     		ldrh	r1, [r2]
 209 008c 89B2     		uxth	r1, r1
 210 008e 03EB0111 		add	r1, r3, r1, lsl #4
 211 0092 0331     		adds	r1, r1, #3
 212 0094 C979     		ldrb	r1, [r1, #7]	@ zero_extendqisi2
 213 0096 B972     		strb	r1, [r7, #10]
  71:.\can_manager.c **** 		data_queue[*data_tail].data[4] = can_queue[can_head].data[4];
 214              		.loc 1 71 0
ARM GAS  C:\Users\Sirius\AppData\Local\Temp\ccB2Noza.s 			page 6


 215 0098 2788     		ldrh	r7, [r4]
 216 009a 05EB0717 		add	r7, r5, r7, lsl #4
 217 009e 1188     		ldrh	r1, [r2]
 218 00a0 89B2     		uxth	r1, r1
 219 00a2 03EB0111 		add	r1, r3, r1, lsl #4
 220 00a6 0431     		adds	r1, r1, #4
 221 00a8 C979     		ldrb	r1, [r1, #7]	@ zero_extendqisi2
 222 00aa F972     		strb	r1, [r7, #11]
  72:.\can_manager.c **** 		data_queue[*data_tail].data[5] = can_queue[can_head].data[5];
 223              		.loc 1 72 0
 224 00ac 2788     		ldrh	r7, [r4]
 225 00ae 05EB0717 		add	r7, r5, r7, lsl #4
 226 00b2 1188     		ldrh	r1, [r2]
 227 00b4 89B2     		uxth	r1, r1
 228 00b6 03EB0111 		add	r1, r3, r1, lsl #4
 229 00ba 0531     		adds	r1, r1, #5
 230 00bc C979     		ldrb	r1, [r1, #7]	@ zero_extendqisi2
 231 00be 3973     		strb	r1, [r7, #12]
  73:.\can_manager.c **** 		data_queue[*data_tail].data[6] = can_queue[can_head].data[6];
 232              		.loc 1 73 0
 233 00c0 2788     		ldrh	r7, [r4]
 234 00c2 05EB0717 		add	r7, r5, r7, lsl #4
 235 00c6 1188     		ldrh	r1, [r2]
 236 00c8 89B2     		uxth	r1, r1
 237 00ca 03EB0111 		add	r1, r3, r1, lsl #4
 238 00ce 0631     		adds	r1, r1, #6
 239 00d0 C979     		ldrb	r1, [r1, #7]	@ zero_extendqisi2
 240 00d2 7973     		strb	r1, [r7, #13]
  74:.\can_manager.c **** 		data_queue[*data_tail].data[7] = can_queue[can_head].data[7];
 241              		.loc 1 74 0
 242 00d4 2188     		ldrh	r1, [r4]
 243 00d6 05EB0111 		add	r1, r5, r1, lsl #4
 244 00da 1788     		ldrh	r7, [r2]
 245 00dc BFB2     		uxth	r7, r7
 246 00de 03EB0713 		add	r3, r3, r7, lsl #4
 247 00e2 0733     		adds	r3, r3, #7
 248 00e4 DB79     		ldrb	r3, [r3, #7]	@ zero_extendqisi2
 249 00e6 8B73     		strb	r3, [r1, #14]
  75:.\can_manager.c **** 
  76:.\can_manager.c **** 		can_head = (can_head + 1) % CAN_QUEUE_LENGTH; // discard copied packet
 250              		.loc 1 76 0
 251 00e8 1388     		ldrh	r3, [r2]
 252 00ea 0133     		adds	r3, r3, #1
 253 00ec C3F30903 		ubfx	r3, r3, #0, #10
 254 00f0 9BB2     		uxth	r3, r3
 255 00f2 1380     		strh	r3, [r2]	@ movhi
  77:.\can_manager.c **** 
  78:.\can_manager.c **** 		*data_tail = (*data_tail + 1) % DATA_QUEUE_LENGTH; // increment data tail
 256              		.loc 1 78 0
 257 00f4 2288     		ldrh	r2, [r4]
 258 00f6 0132     		adds	r2, r2, #1
 259 00f8 164B     		ldr	r3, .L17+8
 260 00fa 1340     		ands	r3, r3, r2
 261 00fc 002B     		cmp	r3, #0
 262 00fe 05DA     		bge	.L12
 263 0100 013B     		subs	r3, r3, #1
 264 0102 6FEA8353 		mvn	r3, r3, lsl #22
ARM GAS  C:\Users\Sirius\AppData\Local\Temp\ccB2Noza.s 			page 7


 265 0106 6FEA9353 		mvn	r3, r3, lsr #22
 266 010a 0133     		adds	r3, r3, #1
 267              	.L12:
 268 010c 9BB2     		uxth	r3, r3
 269 010e 2380     		strh	r3, [r4]	@ movhi
  79:.\can_manager.c **** 
  80:.\can_manager.c **** 		if(*data_tail == *data_head) // if need to roll data queue
 270              		.loc 1 80 0
 271 0110 3288     		ldrh	r2, [r6]
 272 0112 9342     		cmp	r3, r2
 273 0114 0BD1     		bne	.L13
  81:.\can_manager.c **** 			*data_head = (*data_head + 1) % DATA_QUEUE_LENGTH;
 274              		.loc 1 81 0
 275 0116 0132     		adds	r2, r2, #1
 276 0118 0E4B     		ldr	r3, .L17+8
 277 011a 1340     		ands	r3, r3, r2
 278 011c 002B     		cmp	r3, #0
 279 011e 05DA     		bge	.L14
 280 0120 013B     		subs	r3, r3, #1
 281 0122 6FEA8353 		mvn	r3, r3, lsl #22
 282 0126 6FEA9353 		mvn	r3, r3, lsr #22
 283 012a 0133     		adds	r3, r3, #1
 284              	.L14:
 285 012c 3380     		strh	r3, [r6]	@ movhi
 286              	.L13:
  61:.\can_manager.c **** 	{
 287              		.loc 1 61 0
 288 012e 074B     		ldr	r3, .L17
 289 0130 1A88     		ldrh	r2, [r3]
 290 0132 92B2     		uxth	r2, r2
 291 0134 5B88     		ldrh	r3, [r3, #2]
 292 0136 9BB2     		uxth	r3, r3
 293 0138 9A42     		cmp	r2, r3
 294 013a 7FF46BAF 		bne	.L15
  82:.\can_manager.c **** 	} // for all can messages in queue
  83:.\can_manager.c **** 
  84:.\can_manager.c **** 	can_head = can_tail = 0;
 295              		.loc 1 84 0
 296 013e 034B     		ldr	r3, .L17
 297 0140 0022     		movs	r2, #0
 298 0142 5A80     		strh	r2, [r3, #2]	@ movhi
 299 0144 1A80     		strh	r2, [r3]	@ movhi
  85:.\can_manager.c **** 	CyExitCriticalSection(atomic_state); // END ATOMIC
 300              		.loc 1 85 0
 301 0146 FFF7FEFF 		bl	CyExitCriticalSection
 302              	.LVL9:
 303 014a F8BD     		pop	{r3, r4, r5, r6, r7, pc}
 304              	.LVL10:
 305              	.L18:
 306              		.align	2
 307              	.L17:
 308 014c 00000000 		.word	.LANCHOR0
 309 0150 00000000 		.word	can_queue
 310 0154 FF030080 		.word	-2147482625
 311              		.cfi_endproc
 312              	.LFE65:
 313              		.size	can_get, .-can_get
ARM GAS  C:\Users\Sirius\AppData\Local\Temp\ccB2Noza.s 			page 8


 314              		.section	.text.can_read,"ax",%progbits
 315              		.align	2
 316              		.global	can_read
 317              		.thumb
 318              		.thumb_func
 319              		.type	can_read, %function
 320              	can_read:
 321              	.LFB66:
  86:.\can_manager.c ****     //CAN_GlobalIntDisable();
  87:.\can_manager.c **** } // can_receive()
  88:.\can_manager.c **** 
  89:.\can_manager.c **** 
  90:.\can_manager.c **** uint16_t can_read(const DataPacket* data_queue, const uint16_t data_head, const uint16_t data_tail,
  91:.\can_manager.c **** {
 322              		.loc 1 91 0
 323              		.cfi_startproc
 324              		@ args = 4, pretend = 0, frame = 0
 325              		@ frame_needed = 0, uses_anonymous_args = 0
 326              		@ link register save eliminated.
 327              	.LVL11:
 328 0000 F0B4     		push	{r4, r5, r6, r7}
 329              		.cfi_def_cfa_offset 16
 330              		.cfi_offset 4, -16
 331              		.cfi_offset 5, -12
 332              		.cfi_offset 6, -8
 333              		.cfi_offset 7, -4
 334 0002 BDF81070 		ldrh	r7, [sp, #16]
 335              	.LVL12:
  92:.\can_manager.c ****     uint16_t pos;
  93:.\can_manager.c ****     uint16_t newest = 0;
 336              		.loc 1 93 0
 337 0006 0026     		movs	r6, #0
  94:.\can_manager.c ****     
  95:.\can_manager.c ****     //if (data_head == data_tail)
  96:.\can_manager.c ****         //return 0;
  97:.\can_manager.c ****     
  98:.\can_manager.c ****     for(pos=data_head; pos!=data_tail; pos=(pos+1)%DATA_QUEUE_LENGTH)
 338              		.loc 1 98 0
 339 0008 12E0     		b	.L20
 340              	.LVL13:
 341              	.L23:
  99:.\can_manager.c **** 	{
 100:.\can_manager.c ****         if(data_queue[pos].id == ID)
 342              		.loc 1 100 0
 343 000a 00EB0114 		add	r4, r0, r1, lsl #4
 344 000e A588     		ldrh	r5, [r4, #4]
 345 0010 9D42     		cmp	r5, r3
 346 0012 01D1     		bne	.L21
 101:.\can_manager.c ****         {
 102:.\can_manager.c ****             newest = data_queue[pos].data[Entry];
 347              		.loc 1 102 0
 348 0014 3C44     		add	r4, r4, r7
 349 0016 E679     		ldrb	r6, [r4, #7]	@ zero_extendqisi2
 350              	.LVL14:
 351              	.L21:
  98:.\can_manager.c **** 	{
 352              		.loc 1 98 0 discriminator 2
ARM GAS  C:\Users\Sirius\AppData\Local\Temp\ccB2Noza.s 			page 9


 353 0018 4C1C     		adds	r4, r1, #1
 354 001a 0849     		ldr	r1, .L25
 355              	.LVL15:
 356 001c 2140     		ands	r1, r1, r4
 357 001e 0029     		cmp	r1, #0
 358 0020 05DA     		bge	.L22
 359 0022 0139     		subs	r1, r1, #1
 360 0024 6FEA8151 		mvn	r1, r1, lsl #22
 361 0028 6FEA9151 		mvn	r1, r1, lsr #22
 362 002c 0131     		adds	r1, r1, #1
 363              	.L22:
 364 002e 89B2     		uxth	r1, r1
 365              	.LVL16:
 366              	.L20:
  98:.\can_manager.c **** 	{
 367              		.loc 1 98 0 is_stmt 0 discriminator 1
 368 0030 9142     		cmp	r1, r2
 369 0032 EAD1     		bne	.L23
 103:.\can_manager.c ****         }
 104:.\can_manager.c ****     }
 105:.\can_manager.c ****     
 106:.\can_manager.c ****     //if (data_queue.id == ID)
 107:.\can_manager.c ****     //    return data_queue[pos].data[Entry]; 
 108:.\can_manager.c ****     return (newest);
 109:.\can_manager.c **** }
 370              		.loc 1 109 0 is_stmt 1
 371 0034 3046     		mov	r0, r6
 372              	.LVL17:
 373 0036 F0BC     		pop	{r4, r5, r6, r7}
 374              		.cfi_restore 7
 375              		.cfi_restore 6
 376              		.cfi_restore 5
 377              		.cfi_restore 4
 378              		.cfi_def_cfa_offset 0
 379              	.LVL18:
 380 0038 7047     		bx	lr
 381              	.L26:
 382 003a 00BF     		.align	2
 383              	.L25:
 384 003c FF030080 		.word	-2147482625
 385              		.cfi_endproc
 386              	.LFE66:
 387              		.size	can_read, .-can_read
 388              		.section	.text.Curtis_Fault_Check,"ax",%progbits
 389              		.align	2
 390              		.global	Curtis_Fault_Check
 391              		.thumb
 392              		.thumb_func
 393              		.type	Curtis_Fault_Check, %function
 394              	Curtis_Fault_Check:
 395              	.LFB67:
 110:.\can_manager.c **** 
 111:.\can_manager.c **** uint8_t Curtis_Fault_Check(const DataPacket* data_queue, const uint16_t data_head, const uint16_t d
 112:.\can_manager.c **** {
 396              		.loc 1 112 0
 397              		.cfi_startproc
 398              		@ args = 0, pretend = 0, frame = 0
ARM GAS  C:\Users\Sirius\AppData\Local\Temp\ccB2Noza.s 			page 10


 399              		@ frame_needed = 0, uses_anonymous_args = 0
 400              		@ link register save eliminated.
 401              	.LVL19:
 113:.\can_manager.c ****     uint16_t pos;
 114:.\can_manager.c ****     //uint16_t newest = 0;
 115:.\can_manager.c ****     
 116:.\can_manager.c ****     //if (data_head == data_tail)
 117:.\can_manager.c ****         //return 0;
 118:.\can_manager.c ****     
 119:.\can_manager.c ****     for(pos=data_head; pos!=data_tail; pos=(pos+1)%DATA_QUEUE_LENGTH)
 402              		.loc 1 119 0
 403 0000 10E0     		b	.L28
 404              	.LVL20:
 405              	.L31:
 120:.\can_manager.c **** 	{
 121:.\can_manager.c ****         if(data_queue[pos].id == 0xA6)  //A6 is the Curtis error msg ID
 406              		.loc 1 121 0
 407 0002 00EB0113 		add	r3, r0, r1, lsl #4
 408 0006 9B88     		ldrh	r3, [r3, #4]
 409 0008 A62B     		cmp	r3, #166
 410 000a 0FD0     		beq	.L32
 119:.\can_manager.c **** 	{
 411              		.loc 1 119 0 discriminator 2
 412 000c 0131     		adds	r1, r1, #1
 413              	.LVL21:
 414 000e 084B     		ldr	r3, .L33
 415 0010 0B40     		ands	r3, r3, r1
 416 0012 002B     		cmp	r3, #0
 417 0014 05DA     		bge	.L30
 418 0016 013B     		subs	r3, r3, #1
 419 0018 6FEA8353 		mvn	r3, r3, lsl #22
 420 001c 6FEA9353 		mvn	r3, r3, lsr #22
 421 0020 0133     		adds	r3, r3, #1
 422              	.L30:
 423 0022 99B2     		uxth	r1, r3
 424              	.LVL22:
 425              	.L28:
 119:.\can_manager.c **** 	{
 426              		.loc 1 119 0 is_stmt 0 discriminator 1
 427 0024 9142     		cmp	r1, r2
 428 0026 ECD1     		bne	.L31
 122:.\can_manager.c ****         {
 123:.\can_manager.c ****             return(1);
 124:.\can_manager.c ****         }
 125:.\can_manager.c ****     }
 126:.\can_manager.c ****     
 127:.\can_manager.c ****     //if (data_queue.id == ID)
 128:.\can_manager.c ****     //    return data_queue[pos].data[Entry]; 
 129:.\can_manager.c ****     return (0);
 429              		.loc 1 129 0 is_stmt 1
 430 0028 0020     		movs	r0, #0
 431              	.LVL23:
 432 002a 7047     		bx	lr
 433              	.LVL24:
 434              	.L32:
 123:.\can_manager.c ****         }
 435              		.loc 1 123 0
ARM GAS  C:\Users\Sirius\AppData\Local\Temp\ccB2Noza.s 			page 11


 436 002c 0120     		movs	r0, #1
 437              	.LVL25:
 130:.\can_manager.c **** }
 438              		.loc 1 130 0
 439 002e 7047     		bx	lr
 440              	.L34:
 441              		.align	2
 442              	.L33:
 443 0030 FF030080 		.word	-2147482625
 444              		.cfi_endproc
 445              	.LFE67:
 446              		.size	Curtis_Fault_Check, .-Curtis_Fault_Check
 447              		.section	.text.Curtis_Heart_Beat_Check,"ax",%progbits
 448              		.align	2
 449              		.global	Curtis_Heart_Beat_Check
 450              		.thumb
 451              		.thumb_func
 452              		.type	Curtis_Heart_Beat_Check, %function
 453              	Curtis_Heart_Beat_Check:
 454              	.LFB68:
 131:.\can_manager.c **** 
 132:.\can_manager.c **** uint8_t Curtis_Heart_Beat_Check(const DataPacket* data_queue, const uint16_t data_head, const uint1
 133:.\can_manager.c **** {
 455              		.loc 1 133 0
 456              		.cfi_startproc
 457              		@ args = 0, pretend = 0, frame = 0
 458              		@ frame_needed = 0, uses_anonymous_args = 0
 459              		@ link register save eliminated.
 460              	.LVL26:
 461 0000 10B4     		push	{r4}
 462              		.cfi_def_cfa_offset 4
 463              		.cfi_offset 4, -4
 464              	.LVL27:
 134:.\can_manager.c ****     uint16_t pos;
 135:.\can_manager.c ****     
 136:.\can_manager.c ****     for(pos=data_head; pos!=data_tail; pos=(pos+1)%DATA_QUEUE_LENGTH)
 465              		.loc 1 136 0
 466 0002 12E0     		b	.L36
 467              	.LVL28:
 468              	.L39:
 137:.\can_manager.c **** 	{
 138:.\can_manager.c ****         if(data_queue[pos].id == 0x726)  //0x726 is the Curtis HeartBeat ID
 469              		.loc 1 138 0
 470 0004 00EB0113 		add	r3, r0, r1, lsl #4
 471 0008 9C88     		ldrh	r4, [r3, #4]
 472 000a 40F22673 		movw	r3, #1830
 473 000e 9C42     		cmp	r4, r3
 474 0010 0FD0     		beq	.L40
 136:.\can_manager.c **** 	{
 475              		.loc 1 136 0 discriminator 2
 476 0012 0131     		adds	r1, r1, #1
 477              	.LVL29:
 478 0014 094B     		ldr	r3, .L42
 479 0016 0B40     		ands	r3, r3, r1
 480 0018 002B     		cmp	r3, #0
 481 001a 05DA     		bge	.L38
 482 001c 013B     		subs	r3, r3, #1
ARM GAS  C:\Users\Sirius\AppData\Local\Temp\ccB2Noza.s 			page 12


 483 001e 6FEA8353 		mvn	r3, r3, lsl #22
 484 0022 6FEA9353 		mvn	r3, r3, lsr #22
 485 0026 0133     		adds	r3, r3, #1
 486              	.L38:
 487 0028 99B2     		uxth	r1, r3
 488              	.LVL30:
 489              	.L36:
 136:.\can_manager.c **** 	{
 490              		.loc 1 136 0 is_stmt 0 discriminator 1
 491 002a 9142     		cmp	r1, r2
 492 002c EAD1     		bne	.L39
 139:.\can_manager.c ****         {
 140:.\can_manager.c ****             return(1);
 141:.\can_manager.c ****         }
 142:.\can_manager.c ****     }
 143:.\can_manager.c ****     
 144:.\can_manager.c ****     //if (data_queue.id == ID)
 145:.\can_manager.c ****     //    return data_queue[pos].data[Entry]; 
 146:.\can_manager.c ****     return (0);
 493              		.loc 1 146 0 is_stmt 1
 494 002e 0020     		movs	r0, #0
 495              	.LVL31:
 496 0030 00E0     		b	.L37
 497              	.LVL32:
 498              	.L40:
 140:.\can_manager.c ****         }
 499              		.loc 1 140 0
 500 0032 0120     		movs	r0, #1
 501              	.LVL33:
 502              	.L37:
 147:.\can_manager.c **** }...
 503              		.loc 1 147 0
 504 0034 5DF8044B 		ldr	r4, [sp], #4
 505              		.cfi_restore 4
 506              		.cfi_def_cfa_offset 0
 507 0038 7047     		bx	lr
 508              	.L43:
 509 003a 00BF     		.align	2
 510              	.L42:
 511 003c FF030080 		.word	-2147482625
 512              		.cfi_endproc
 513              	.LFE68:
 514              		.size	Curtis_Heart_Beat_Check, .-Curtis_Heart_Beat_Check
 515              		.global	can_tail
 516              		.global	can_head
 517              		.comm	can_queue,16384,4
 518              		.comm	can_buffer,8,4
 519              		.bss
 520              		.align	1
 521              		.set	.LANCHOR0,. + 0
 522              		.type	can_head, %object
 523              		.size	can_head, 2
 524              	can_head:
 525 0000 0000     		.space	2
 526              		.type	can_tail, %object
 527              		.size	can_tail, 2
 528              	can_tail:
ARM GAS  C:\Users\Sirius\AppData\Local\Temp\ccB2Noza.s 			page 13


 529 0002 0000     		.space	2
 530              		.text
 531              	.Letext0:
 532              		.file 2 "c:\\program files (x86)\\cypress\\psoc creator\\3.3\\psoc creator\\import\\gnu\\arm\\4.9.
 533              		.file 3 "c:\\program files (x86)\\cypress\\psoc creator\\3.3\\psoc creator\\import\\gnu\\arm\\4.9.
 534              		.file 4 "Generated_Source\\PSoC5/cytypes.h"
 535              		.file 5 ".\\data.h"
 536              		.file 6 ".\\can_manager.h"
 537              		.file 7 "Generated_Source\\PSoC5/core_cm3.h"
 538              		.file 8 "Generated_Source\\PSoC5/CAN.h"
 539              		.file 9 "Generated_Source\\PSoC5/CyLib.h"