ARM GAS  C:\Users\Schuyler\AppData\Local\Temp\ccmSbW6n.s 			page 1


   1              		.syntax unified
   2              		.cpu cortex-m3
   3              		.fpu softvfp
   4              		.eabi_attribute 20, 1
   5              		.eabi_attribute 21, 1
   6              		.eabi_attribute 23, 3
   7              		.eabi_attribute 24, 1
   8              		.eabi_attribute 25, 1
   9              		.eabi_attribute 26, 1
  10              		.eabi_attribute 30, 1
  11              		.eabi_attribute 34, 1
  12              		.eabi_attribute 18, 4
  13              		.thumb
  14              		.file	"main.c"
  15              		.text
  16              	.Ltext0:
  17              		.cfi_sections	.debug_frame
  18              		.section	.text.test_inject,"ax",%progbits
  19              		.align	2
  20              		.global	test_inject
  21              		.thumb
  22              		.thumb_func
  23              		.type	test_inject, %function
  24              	test_inject:
  25              	.LFB63:
  26              		.file 1 "main.c"
   1:main.c        **** #include <project.h>
   2:main.c        **** #include <stdio.h>
   3:main.c        **** #include "can_manager.h"
   4:main.c        **** #include "can_manga.h"
   5:main.c        **** 
   6:main.c        **** // Declare live global variables for use with can_manga
   7:main.c        **** volatile uint8_t CAPACITOR_VOLT = 0;
   8:main.c        **** volatile uint8_t CURTIS_FAULT_CHECK = 0; // 0 until has seen kurtis fault, then 1
   9:main.c        **** volatile uint8_t CURTIS_HEART_BEAT_CHECK = 0;
  10:main.c        **** volatile uint16_t ACK_RX = 0;
  11:main.c        **** 
  12:main.c        **** 
  13:main.c        **** #define PWM_PULSE_WIDTH_STEP        (10u)
  14:main.c        **** #define SWITCH_PRESSED              (0u)
  15:main.c        **** #define PWM_MESSAGE_ID              (0x1AAu)
  16:main.c        **** #define PWM_MESSAGE_IDE             (0u)    /* Standard message */
  17:main.c        **** #define PWM_MESSAGE_IRQ             (0u)    /* No transmit IRQ */
  18:main.c        **** #define PWM_MESSAGE_RTR             (0u)    /* No RTR */
  19:main.c        **** #define CAN_RX_MAILBOX_0_SHIFT      (1u)
  20:main.c        **** #define CAN_RX_MAILBOX_1_SHIFT      (2u)
  21:main.c        **** #define DATA_SIZE                   (6u)
  22:main.c        **** #define ONE_BYTE_OFFSET             (8u)
  23:main.c        **** 
  24:main.c        **** /* Function prototypes */
  25:main.c        **** //CY_ISR_PROTO(ISR_CAN);
  26:main.c        **** 
  27:main.c        **** /* Global variables used to store configuration and data for BASIC CAN mailbox */
  28:main.c        **** //CAN_DATA_BYTES_MSG dataPWM;
  29:main.c        **** //CAN_TX_MSG messagePWM;
  30:main.c        **** 
  31:main.c        **** /* Global variable used to store PWM pulse width value */
ARM GAS  C:\Users\Schuyler\AppData\Local\Temp\ccmSbW6n.s 			page 2


  32:main.c        **** //uint8 pulseWidthValue = 0u;
  33:main.c        **** 
  34:main.c        **** /* Global variable used to store receive message mailbox number */
  35:main.c        **** //volatile uint8 receiveMailboxNumber = 0xFFu;
  36:main.c        **** 
  37:main.c        **** typedef enum 
  38:main.c        **** {
  39:main.c        **** 	Startup,
  40:main.c        **** 	LV,
  41:main.c        **** 	Precharging,
  42:main.c        **** 	HV_Enabled,
  43:main.c        **** 	Drive,
  44:main.c        **** 	Fault
  45:main.c        ****     
  46:main.c        **** }Dash_State;
  47:main.c        **** 
  48:main.c        **** typedef enum 
  49:main.c        **** {
  50:main.c        **** 	OK,
  51:main.c        **** 	fromLV,
  52:main.c        **** 	fromPrecharging,
  53:main.c        **** 	fromHV_Enabled,
  54:main.c        **** 	fromDrive,
  55:main.c        ****     fromFault
  56:main.c        ****     
  57:main.c        **** }Error_State;
  58:main.c        **** 
  59:main.c        **** /* Switch state defines -- Active High*/ 
  60:main.c        **** #define SWITCH_ON         (1u)
  61:main.c        **** #define SWITCH_OFF        (0u)
  62:main.c        **** /* Switch debounce delay in milliseconds */
  63:main.c        **** #define SWITCH_DEBOUNCE_UNIT   (1u)
  64:main.c        **** /* Number of debounce units to count delay, before consider that switch is pressed */
  65:main.c        **** #define SWITCH_DEBOUNCE_PERIOD (10u)
  66:main.c        **** /* Function prototypes */
  67:main.c        **** static uint32 ReadSwSwitch(void);
  68:main.c        **** 
  69:main.c        **** /* Global variable used to store switch state */
  70:main.c        **** uint8 HVSwitch = SWITCH_OFF;
  71:main.c        **** uint8 DriveSwitch = SWITCH_OFF;
  72:main.c        **** //volatile Dash_State state = Startup;
  73:main.c        **** 
  74:main.c        **** //CY_ISR(isr_can_handler){
  75:main.c        ****     
  76:main.c        **** //    can_send_status(state);
  77:main.c        ****     
  78:main.c        **** //}
  79:main.c        **** void test_inject(DataPacket *data_queue, uint16_t *data_tail)
  80:main.c        **** {
  27              		.loc 1 80 0
  28              		.cfi_startproc
  29              		@ args = 0, pretend = 0, frame = 0
  30              		@ frame_needed = 0, uses_anonymous_args = 0
  31              		@ link register save eliminated.
  32              	.LVL0:
  33 0000 10B4     		push	{r4}
  34              		.cfi_def_cfa_offset 4
ARM GAS  C:\Users\Schuyler\AppData\Local\Temp\ccmSbW6n.s 			page 3


  35              		.cfi_offset 4, -4
  81:main.c        **** 	//inject message to test usb
  82:main.c        **** 	// NOTE: does not handle queue wrapping. Assumes queue has room.
  83:main.c        **** 	data_queue[*data_tail].millicounter = 0;
  36              		.loc 1 83 0
  37 0002 0B88     		ldrh	r3, [r1]
  38 0004 1B01     		lsls	r3, r3, #4
  39 0006 0022     		movs	r2, #0
  40 0008 C250     		str	r2, [r0, r3]
  84:main.c        **** 	data_queue[*data_tail].id = 0x111;
  41              		.loc 1 84 0
  42 000a 0B88     		ldrh	r3, [r1]
  43 000c 00EB0313 		add	r3, r0, r3, lsl #4
  44 0010 40F21114 		movw	r4, #273
  45 0014 9C80     		strh	r4, [r3, #4]	@ movhi
  85:main.c        **** 	data_queue[*data_tail].length = 8;
  46              		.loc 1 85 0
  47 0016 0B88     		ldrh	r3, [r1]
  48 0018 00EB0313 		add	r3, r0, r3, lsl #4
  49 001c 0824     		movs	r4, #8
  50 001e 9C71     		strb	r4, [r3, #6]
  86:main.c        **** 	data_queue[*data_tail].data[0]= 0;
  51              		.loc 1 86 0
  52 0020 0B88     		ldrh	r3, [r1]
  53 0022 00EB0313 		add	r3, r0, r3, lsl #4
  54 0026 DA71     		strb	r2, [r3, #7]
  87:main.c        **** 	data_queue[*data_tail].data[1]= 1;
  55              		.loc 1 87 0
  56 0028 0B88     		ldrh	r3, [r1]
  57 002a 00EB0313 		add	r3, r0, r3, lsl #4
  58 002e 0122     		movs	r2, #1
  59 0030 1A72     		strb	r2, [r3, #8]
  88:main.c        **** 	data_queue[*data_tail].data[2]= 2;
  60              		.loc 1 88 0
  61 0032 0B88     		ldrh	r3, [r1]
  62 0034 00EB0313 		add	r3, r0, r3, lsl #4
  63 0038 0222     		movs	r2, #2
  64 003a 5A72     		strb	r2, [r3, #9]
  89:main.c        **** 	data_queue[*data_tail].data[3]= 3;
  65              		.loc 1 89 0
  66 003c 0B88     		ldrh	r3, [r1]
  67 003e 00EB0313 		add	r3, r0, r3, lsl #4
  68 0042 0322     		movs	r2, #3
  69 0044 9A72     		strb	r2, [r3, #10]
  90:main.c        **** 	data_queue[*data_tail].data[4]= 4;
  70              		.loc 1 90 0
  71 0046 0B88     		ldrh	r3, [r1]
  72 0048 00EB0313 		add	r3, r0, r3, lsl #4
  73 004c 0422     		movs	r2, #4
  74 004e DA72     		strb	r2, [r3, #11]
  91:main.c        **** 	data_queue[*data_tail].data[5]= 5;
  75              		.loc 1 91 0
  76 0050 0B88     		ldrh	r3, [r1]
  77 0052 00EB0313 		add	r3, r0, r3, lsl #4
  78 0056 0522     		movs	r2, #5
  79 0058 1A73     		strb	r2, [r3, #12]
  92:main.c        **** 	data_queue[*data_tail].data[6]= 6;
ARM GAS  C:\Users\Schuyler\AppData\Local\Temp\ccmSbW6n.s 			page 4


  80              		.loc 1 92 0
  81 005a 0B88     		ldrh	r3, [r1]
  82 005c 00EB0313 		add	r3, r0, r3, lsl #4
  83 0060 0622     		movs	r2, #6
  84 0062 5A73     		strb	r2, [r3, #13]
  93:main.c        **** 	data_queue[*data_tail].data[7]= 0x7E;
  85              		.loc 1 93 0
  86 0064 0B88     		ldrh	r3, [r1]
  87 0066 00EB0310 		add	r0, r0, r3, lsl #4
  88              	.LVL1:
  89 006a 7E23     		movs	r3, #126
  90 006c 8373     		strb	r3, [r0, #14]
  94:main.c        **** 	(*data_tail)++; // does not handle queue wrapping.
  91              		.loc 1 94 0
  92 006e 0B88     		ldrh	r3, [r1]
  93 0070 0133     		adds	r3, r3, #1
  94 0072 0B80     		strh	r3, [r1]	@ movhi
  95:main.c        **** } // test_inject()
  95              		.loc 1 95 0
  96 0074 5DF8044B 		ldr	r4, [sp], #4
  97              		.cfi_restore 4
  98              		.cfi_def_cfa_offset 0
  99 0078 7047     		bx	lr
 100              		.cfi_endproc
 101              	.LFE63:
 102              		.size	test_inject, .-test_inject
 103              		.section	.text.main,"ax",%progbits
 104              		.align	2
 105              		.global	main
 106              		.thumb
 107              		.thumb_func
 108              		.type	main, %function
 109              	main:
 110              	.LFB64:
  96:main.c        **** 
  97:main.c        **** 
  98:main.c        **** /*******************************************************************************
  99:main.c        **** * Function Name: main
 100:main.c        **** ********************************************************************************
 101:main.c        **** *
 102:main.c        **** * Summary:
 103:main.c        **** *  main() performs the following functions:
 104:main.c        **** *  1: Initializes a structure for the Basic CAN mailbox to send messages.
 105:main.c        **** *  2: Starts the CAN and LCD components.
 106:main.c        **** *  3: When received Message 1, sends the PWM pulse width and displays
 107:main.c        **** *     received switch status and value of PWM pulse width on an LCD; 
 108:main.c        **** *     When received Message 2, display received ADC data on an LCD.
 109:main.c        **** *
 110:main.c        **** * Parameters:
 111:main.c        **** *  None.
 112:main.c        **** *
 113:main.c        **** * Return:
 114:main.c        **** *  None.
 115:main.c        **** *
 116:main.c        **** *******************************************************************************/
 117:main.c        **** 
 118:main.c        **** int main()
ARM GAS  C:\Users\Schuyler\AppData\Local\Temp\ccmSbW6n.s 			page 5


 119:main.c        **** {   
 111              		.loc 1 119 0
 112              		.cfi_startproc
 113              		@ args = 0, pretend = 0, frame = 16392
 114              		@ frame_needed = 0, uses_anonymous_args = 0
 115 0000 2DE9F04F 		push	{r4, r5, r6, r7, r8, r9, r10, fp, lr}
 116              		.cfi_def_cfa_offset 36
 117              		.cfi_offset 4, -36
 118              		.cfi_offset 5, -32
 119              		.cfi_offset 6, -28
 120              		.cfi_offset 7, -24
 121              		.cfi_offset 8, -20
 122              		.cfi_offset 9, -16
 123              		.cfi_offset 10, -12
 124              		.cfi_offset 11, -8
 125              		.cfi_offset 14, -4
 126 0004 ADF5804D 		sub	sp, sp, #16384
 127              		.cfi_def_cfa_offset 16420
 128 0008 85B0     		sub	sp, sp, #20
 129              		.cfi_def_cfa_offset 16440
 130              	.LVL2:
 120:main.c        ****     Dash_State state = Startup;
 121:main.c        ****     Error_State error_state = OK;
 122:main.c        ****     
 123:main.c        ****     // Main data queue
 124:main.c        **** 	DataPacket data_queue[DATA_QUEUE_LENGTH];
 125:main.c        **** 	uint16_t data_head, data_tail;
 126:main.c        **** 	data_head = data_tail = 0;
 131              		.loc 1 126 0
 132 000a 0024     		movs	r4, #0
 133 000c ADF80C40 		strh	r4, [sp, #12]	@ movhi
 134 0010 ADF80E40 		strh	r4, [sp, #14]	@ movhi
 135              	.LVL3:
 127:main.c        ****     
 128:main.c        ****     //Tach Meter Stuff
 129:main.c        ****     uint8_t value=0; // replace the value with 
 130:main.c        ****     int8_t direction=1;
 131:main.c        ****     WaveDAC8_1_Start();
 136              		.loc 1 131 0
 137 0014 FFF7FEFF 		bl	WaveDAC8_1_Start
 138              	.LVL4:
 132:main.c        ****     
 133:main.c        ****     //precharging time counter
 134:main.c        ****     uint32_t PrechargingTimeCount = 0;
 135:main.c        ****     uint32_t DriveTimeCount = 0;
 136:main.c        ****     
 137:main.c        ****     //CyDelay(5000);
 138:main.c        ****     //Initialize CAN
 139:main.c        ****     //CAN_GlobalIntEnable();
 140:main.c        ****     //CAN_Init();
 141:main.c        ****     //CAN_Start();
 142:main.c        ****     
 143:main.c        ****     /* Set CAN interrupt handler to local routine */
 144:main.c        ****     //CyIntSetVector(CAN_ISR_NUMBER, ISR_CAN);   
 145:main.c        ****     
 146:main.c        ****     //CAN_Timer_Start();
 147:main.c        ****     //isr_can_StartEx(isr_can_handler);    
ARM GAS  C:\Users\Schuyler\AppData\Local\Temp\ccmSbW6n.s 			page 6


 148:main.c        **** 
 149:main.c        ****     CyGlobalIntEnable;
 139              		.loc 1 149 0
 140              	@ 149 "main.c" 1
 141 0018 62B6     		CPSIE   i
 142              	@ 0 "" 2
 135:main.c        ****     
 143              		.loc 1 135 0
 144              		.thumb
 145 001a 2646     		mov	r6, r4
 121:main.c        ****     
 146              		.loc 1 121 0
 147 001c 2546     		mov	r5, r4
 148 001e 23E0     		b	.L4
 149              	.LVL5:
 150              	.L21:
 151              	.LBB2:
 150:main.c        ****     
 151:main.c        ****     //while(1){
 152:main.c        ****     //}
 153:main.c        ****     
 154:main.c        ****     //char8 txData[DATA_SIZE];
 155:main.c        ****     //uint16 adcData;
 156:main.c        ****     
 157:main.c        ****     /* BASIC CAN mailbox configuration */
 158:main.c        ****     //messagePWM.dlc = CAN_TX_DLC_MAX_VALUE;
 159:main.c        ****     //messagePWM.id  = PWM_MESSAGE_ID;
 160:main.c        ****     //messagePWM.ide = PWM_MESSAGE_IDE;
 161:main.c        ****     //messagePWM.irq = PWM_MESSAGE_IRQ;
 162:main.c        ****     //messagePWM.msg = &dataPWM;
 163:main.c        ****     //messagePWM.rtr = PWM_MESSAGE_RTR;
 164:main.c        **** 
 165:main.c        ****     ////LCD_Start();
 166:main.c        **** 
 167:main.c        ****     
 168:main.c        ****     /* Display value of ADC output on LCD */
 169:main.c        ****     //LCD_Position(0u, 0u);
 170:main.c        ****     //LCD_PrintString("ADC");
 171:main.c        **** 
 172:main.c        ****     /* Display state of switch on LCD */
 173:main.c        ****     //LCD_Position(1u, 0u);
 174:main.c        ****     //LCD_PrintString("SW");
 175:main.c        **** 
 176:main.c        ****     /* Display state of PWM pulse width on LCD */
 177:main.c        ****     //LCD_Position(0u, 10u);
 178:main.c        ****     //LCD_PrintString("PWM");
 179:main.c        **** 
 180:main.c        ****     //test_inject(data_queue, &data_tail);
 181:main.c        ****     
 182:main.c        ****     for(;;)
 183:main.c        ****     {
 184:main.c        ****         //LED_Write(~LED_ReadDataReg());    
 185:main.c        ****         
 186:main.c        ****         //can_send_status(state);
 187:main.c        ****         //CyDelay(2000);
 188:main.c        ****         
 189:main.c        ****         RGB3_2_Write(1);
ARM GAS  C:\Users\Schuyler\AppData\Local\Temp\ccmSbW6n.s 			page 7


 190:main.c        ****         RGB2_2_Write(1);
 191:main.c        ****         RGB1_2_Write(1);
 192:main.c        ****             
 193:main.c        ****         switch(state)
 194:main.c        ****         {    
 195:main.c        ****             //CyDelay(1000);
 196:main.c        ****             case Startup:
 197:main.c        ****   
 198:main.c        ****                 //CyDelay(5000);
 199:main.c        ****                 //Initialize CAN
 200:main.c        ****                 CAN_GlobalIntEnable();
 201:main.c        ****                 CAN_Init();
 202:main.c        ****                 CAN_Start();
 203:main.c        ****                 
 204:main.c        ****                 //CyDelay(5000);
 205:main.c        ****                 can_send_status(state);
 206:main.c        **** 
 207:main.c        ****                 //CyGlobalIntEnable;
 208:main.c        ****                 //CAN_GlobalIntDisable();
 209:main.c        ****                 //CyGlobalIntDisable;
 210:main.c        ****                 LCD_Start();
 211:main.c        ****                 
 212:main.c        ****                 //UI
 213:main.c        ****                 
 214:main.c        ****                 Buzzer_Write(1);
 215:main.c        ****                 WaveDAC8_1_SetValue(253);
 216:main.c        ****                 CyDelay(50);
 217:main.c        ****                 
 218:main.c        ****                 
 219:main.c        ****                 /*
 220:main.c        ****                 //Active Low
 221:main.c        ****                 RGB3_1_Write(1);
 222:main.c        ****                 RGB2_1_Write(1);
 223:main.c        ****                 RGB1_1_Write(1);
 224:main.c        ****                 
 225:main.c        ****                 RGB3_2_Write(1);
 226:main.c        ****                 RGB2_2_Write(1);
 227:main.c        ****                 RGB1_2_Write(1);
 228:main.c        ****                 
 229:main.c        ****                 //RGB Testing
 230:main.c        ****                 RGB3_1_Write(0);
 231:main.c        ****                 CyDelay(2000);
 232:main.c        ****                 RGB3_1_Write(1);
 233:main.c        ****                 RGB2_1_Write(0);
 234:main.c        ****                 CyDelay(2000);
 235:main.c        ****                 RGB2_1_Write(1);
 236:main.c        ****                 RGB1_1_Write(0);
 237:main.c        ****                 CyDelay(2000);
 238:main.c        ****                 RGB1_1_Write(1);
 239:main.c        ****                 RGB3_2_Write(0);
 240:main.c        ****                 CyDelay(2000);
 241:main.c        ****                 RGB3_2_Write(1);
 242:main.c        ****                 RGB2_2_Write(0);
 243:main.c        ****                 CyDelay(2000);
 244:main.c        ****                 RGB2_2_Write(1);
 245:main.c        ****                 RGB1_2_Write(0);
 246:main.c        ****                 CyDelay(2000);
ARM GAS  C:\Users\Schuyler\AppData\Local\Temp\ccmSbW6n.s 			page 8


 247:main.c        ****                 RGB1_2_Write(1);
 248:main.c        ****                 */
 249:main.c        ****                 
 250:main.c        ****                 
 251:main.c        ****                 Buzzer_Write(0);
 252:main.c        ****                 WaveDAC8_1_SetValue(250);
 253:main.c        ****                 //CyDelay(5000);
 254:main.c        ****                 WaveDAC8_1_SetValue(0);
 255:main.c        ****                 
 256:main.c        ****                 state = LV;
 257:main.c        ****                 
 258:main.c        ****             break;
 259:main.c        ****                 
 260:main.c        ****             case LV:
 261:main.c        ****                 
 262:main.c        ****                 can_send_cmd(0,0,0);
 263:main.c        ****                 
 264:main.c        ****                 CAN_GlobalIntEnable();
 265:main.c        ****                 CAN_Init();
 266:main.c        ****                 CAN_Start();
 267:main.c        ****           
 268:main.c        ****                 can_send_status(state);
 269:main.c        ****                 
 270:main.c        ****                 can_get(data_queue, &data_head, &data_tail); // clears queue before filling
 271:main.c        ****                 
 272:main.c        ****                 /*
 273:main.c        ****                 LCD_Position(1u, 10u);
 274:main.c        ****                 LCD_PrintInt16(data_queue[0].id);
 275:main.c        ****                 
 276:main.c        ****                 uint16_t temp = can_read(data_queue, data_head, data_tail, 0x07FF, 0);
 277:main.c        ****                 
 278:main.c        ****                 LCD_Position(0u, 0u);
 279:main.c        ****                 LCD_PrintInt16(temp);
 280:main.c        ****                 
 281:main.c        ****                 temp = can_read(data_queue, data_head, data_tail, 0x07FF, 1);
 282:main.c        ****                 LCD_Position(1u, 0u);
 283:main.c        ****                 LCD_PrintInt8(temp);
 284:main.c        ****                 
 285:main.c        ****                 temp = can_read(data_queue, data_head, data_tail, 0x07FF, 2);
 286:main.c        ****                 LCD_Position(0u, 10u);
 287:main.c        ****                 LCD_PrintInt8(temp);
 288:main.c        ****                 */
 289:main.c        ****                 
 290:main.c        ****                 
 291:main.c        ****                 //UI
 292:main.c        ****                 
 293:main.c        ****                 Buzzer_Write(0);
 294:main.c        ****                 
 295:main.c        ****                 
 296:main.c        ****                 //
 297:main.c        ****                 // RGB code goes here
 298:main.c        ****                 // pick a color
 299:main.c        ****                 // all on. 
 300:main.c        ****                 
 301:main.c        ****                 RGB3_1_Write(0);
 302:main.c        ****                 RGB2_1_Write(1);
 303:main.c        ****                 RGB1_1_Write(0);
ARM GAS  C:\Users\Schuyler\AppData\Local\Temp\ccmSbW6n.s 			page 9


 304:main.c        ****                 
 305:main.c        ****                 RGB3_2_Write(1);
 306:main.c        ****                 RGB2_2_Write(1);
 307:main.c        ****                 RGB1_2_Write(1);
 308:main.c        ****                 
 309:main.c        ****                 if (Drive_Read())
 310:main.c        ****                 {
 311:main.c        ****                     state = Fault;
 312:main.c        ****                     error_state = fromLV;
 152              		.loc 1 312 0
 153 0020 0125     		movs	r5, #1
 154              	.LVL6:
 311:main.c        ****                     error_state = fromLV;
 155              		.loc 1 311 0
 156 0022 0524     		movs	r4, #5
 157              	.LVL7:
 158 0024 20E0     		b	.L4
 159              	.LVL8:
 160              	.L22:
 313:main.c        ****                     break;
 314:main.c        ****                 }
 315:main.c        ****             
 316:main.c        ****                 if (HV_Read())    /* Switch state changed status */
 317:main.c        ****                 {
 318:main.c        ****                     state = Precharging;
 161              		.loc 1 318 0
 162 0026 0224     		movs	r4, #2
 163              	.LVL9:
 164 0028 1EE0     		b	.L4
 165              	.LVL10:
 166              	.L23:
 167              	.LBB3:
 319:main.c        ****                     break;
 320:main.c        ****                 } 
 321:main.c        ****                 
 322:main.c        ****             break;
 323:main.c        ****                 
 324:main.c        ****             case Precharging:
 325:main.c        ****                 
 326:main.c        ****                 CAN_GlobalIntEnable();
 327:main.c        ****                 CAN_Init();
 328:main.c        ****                 CAN_Start();
 329:main.c        ****                 
 330:main.c        ****                 can_send_status(state);
 331:main.c        ****                 
 332:main.c        ****                 RGB3_1_Write(0);
 333:main.c        ****                 RGB2_1_Write(0);
 334:main.c        ****                 RGB1_1_Write(1);
 335:main.c        ****                 
 336:main.c        ****                 RGB3_2_Write(1);
 337:main.c        ****                 RGB2_2_Write(1);
 338:main.c        ****                 RGB1_2_Write(1);
 339:main.c        ****                 
 340:main.c        ****                 Buzzer_Write(0);
 341:main.c        ****                 
 342:main.c        ****                 
 343:main.c        ****                 PrechargingTimeCount = 0;
ARM GAS  C:\Users\Schuyler\AppData\Local\Temp\ccmSbW6n.s 			page 10


 344:main.c        ****                 
 345:main.c        ****                 while(1)
 346:main.c        ****                 {
 347:main.c        ****                     can_send_cmd(1,0,0); // setInterlock
 348:main.c        ****                 
 349:main.c        ****                     can_get(data_queue, &data_head, &data_tail); // clears queue before filling
 350:main.c        ****                     // UNUSED //uint8_t MainState = can_read(data_queue, data_head, data_tail, 0x05
 351:main.c        ****                     uint8_t CapacitorVolt = CAPACITOR_VOLT; //can_read(data_queue, data_head, data_
 352:main.c        ****                     // UNUSED //uint8_t NomialVolt =  can_read(data_queue, data_head, data_tail, 0x
 353:main.c        ****                 
 354:main.c        ****                     if(CapacitorVolt >= 0x1A) // need to be tuned
 355:main.c        ****                     {
 356:main.c        ****                         state = HV_Enabled;
 168              		.loc 1 356 0
 169 002a 0324     		movs	r4, #3
 170              	.LVL11:
 171 002c 1CE0     		b	.L4
 172              	.LVL12:
 173              	.L24:
 357:main.c        ****                         break;
 358:main.c        ****                     }
 359:main.c        ****                 
 360:main.c        ****                 
 361:main.c        ****                     PrechargingTimeCount++;
 362:main.c        ****                 
 363:main.c        ****                     if (PrechargingTimeCount == 10)
 364:main.c        ****                     {
 365:main.c        ****                         state = Fault;
 366:main.c        ****                         error_state = fromPrecharging;
 174              		.loc 1 366 0
 175 002e 0225     		movs	r5, #2
 176              	.LVL13:
 365:main.c        ****                         error_state = fromPrecharging;
 177              		.loc 1 365 0
 178 0030 0524     		movs	r4, #5
 179              	.LVL14:
 180 0032 19E0     		b	.L4
 181              	.LVL15:
 182              	.L25:
 183              	.LBE3:
 367:main.c        ****                         break;
 368:main.c        ****                     }
 369:main.c        ****                 
 370:main.c        ****                     CyDelay(1000);
 371:main.c        ****                 }    
 372:main.c        ****                 
 373:main.c        ****             break;
 374:main.c        **** 	        
 375:main.c        ****             case HV_Enabled:
 376:main.c        **** 
 377:main.c        ****                 CAN_GlobalIntEnable();
 378:main.c        ****                 CAN_Init();
 379:main.c        ****                 CAN_Start();
 380:main.c        ****                 
 381:main.c        ****                 can_send_status(state);
 382:main.c        ****                 
 383:main.c        ****                 //
ARM GAS  C:\Users\Schuyler\AppData\Local\Temp\ccmSbW6n.s 			page 11


 384:main.c        ****                 // RGB code goes here
 385:main.c        ****                 // Blue
 386:main.c        ****                 RGB3_1_Write(1);
 387:main.c        ****                 RGB2_1_Write(1);
 388:main.c        ****                 RGB1_1_Write(0);
 389:main.c        ****                 
 390:main.c        ****                 RGB3_2_Write(1);
 391:main.c        ****                 RGB2_2_Write(1);
 392:main.c        ****                 RGB1_2_Write(1);
 393:main.c        ****                 //CyDelay(5000); ///for debug
 394:main.c        ****                 
 395:main.c        ****                 Buzzer_Write(0);
 396:main.c        ****                 
 397:main.c        ****                 if (Drive_Read())
 398:main.c        ****                 {
 399:main.c        ****                     CyDelay(1000); // wait for the brake msg to be sent
 400:main.c        ****                     can_get(data_queue, &data_head, &data_tail); // clears queue before filling
 401:main.c        ****                     if(can_read(data_queue, data_head, data_tail, 0x0201, 0)==1) // 100 for error t
 402:main.c        ****                     {
 403:main.c        ****                         Buzzer_Write(1);
 404:main.c        ****                         CyDelay(1000);
 405:main.c        ****                         Buzzer_Write(0);
 406:main.c        ****                         state = Drive;
 407:main.c        ****                         break;
 408:main.c        ****                     }
 409:main.c        ****                     else
 410:main.c        ****                     {
 411:main.c        ****                         state = Fault;
 412:main.c        ****                         error_state = fromHV_Enabled;
 184              		.loc 1 412 0
 185 0034 0325     		movs	r5, #3
 186              	.LVL16:
 411:main.c        ****                         error_state = fromHV_Enabled;
 187              		.loc 1 411 0
 188 0036 0524     		movs	r4, #5
 189              	.LVL17:
 190 0038 16E0     		b	.L4
 191              	.LVL18:
 192              	.L26:
 413:main.c        ****                         break;
 414:main.c        ****                     }                     
 415:main.c        ****                 }
 416:main.c        ****                 
 417:main.c        ****                 // if capacitor voltage is undervoltage, change the threshold 0x1A
 418:main.c        ****                 if(!HV_Read() | can_read(data_queue, data_head, data_tail, 0x0566, 0) < 0x1A)
 419:main.c        ****                 {
 420:main.c        ****                     state = LV;
 421:main.c        ****                     DriveTimeCount = 0;
 193              		.loc 1 421 0
 194 003a 0026     		movs	r6, #0
 195              	.LVL19:
 420:main.c        ****                     DriveTimeCount = 0;
 196              		.loc 1 420 0
 197 003c 0124     		movs	r4, #1
 198              	.LVL20:
 199 003e 13E0     		b	.L4
 200              	.LVL21:
ARM GAS  C:\Users\Schuyler\AppData\Local\Temp\ccmSbW6n.s 			page 12


 201              	.L28:
 422:main.c        ****                     break;
 423:main.c        ****                 }
 424:main.c        ****                 
 425:main.c        ****             break;
 426:main.c        ****                 
 427:main.c        **** 	        case Drive:
 428:main.c        ****                 //CAN_GlobalIntEnable();
 429:main.c        ****                 //CAN_Init();
 430:main.c        ****                 //CAN_Start();
 431:main.c        ****                 
 432:main.c        ****                 can_send_status(state);
 433:main.c        ****                 //
 434:main.c        ****                 // RGB code goes here
 435:main.c        ****                 // Green
 436:main.c        ****                 RGB3_1_Write(1);
 437:main.c        ****                 RGB2_1_Write(0);
 438:main.c        ****                 RGB1_1_Write(1);
 439:main.c        ****                 
 440:main.c        ****                 RGB3_2_Write(1);
 441:main.c        ****                 RGB2_2_Write(1);
 442:main.c        ****                 RGB1_2_Write(1);
 443:main.c        ****                 
 444:main.c        ****                 //CyDelay(10000); // debug
 445:main.c        ****                 
 446:main.c        ****                 //Buzzer_Write(1);
 447:main.c        ****                 //CyDelay(5000);
 448:main.c        ****                 //Buzzer_Write(0);
 449:main.c        ****                 
 450:main.c        ****                 //CyDelay(500);
 451:main.c        ****                 
 452:main.c        ****                 
 453:main.c        ****                 uint8_t ACK = 0xFF;
 454:main.c        ****                 
 455:main.c        ****                 DriveTimeCount++;
 456:main.c        ****                 if (DriveTimeCount > 100)
 457:main.c        ****                 {
 458:main.c        ****                     DriveTimeCount = 0;
 459:main.c        ****                     can_get(data_queue, &data_head, &data_tail); // clears queue before filling
 460:main.c        ****                     ACK = can_read(data_queue, data_head, data_tail, 0x0666, 0);
 461:main.c        ****                 }
 462:main.c        ****    
 463:main.c        ****                 uint8_t ABS_Motor_RPM = can_read(data_queue, data_head, data_tail, 0x0566, 4);
 464:main.c        ****                 uint16_t Throttle_High = can_read(data_queue, data_head, data_tail, 0x0200, 1); // 
 465:main.c        ****                 uint16_t Throttle_Low = can_read(data_queue, data_head, data_tail, 0x0200, 2);
 466:main.c        ****                 
 467:main.c        ****                 WaveDAC8_1_SetValue(ABS_Motor_RPM);
 468:main.c        ****                 can_send_cmd(1,Throttle_High,Throttle_Low); // setInterlock
 469:main.c        ****                 
 470:main.c        ****                 //check if everything is going well
 471:main.c        ****                 
 472:main.c        ****                 if ((ACK != 0xFF) | 
 473:main.c        ****                     (!Curtis_Heart_Beat_Check())) // EDIT: Removed | CurtisFaultCheck from this 
 474:main.c        ****                 {
 475:main.c        ****                     state = Fault;
 476:main.c        ****                     error_state = fromDrive;
 477:main.c        ****                     DriveTimeCount = 0;
ARM GAS  C:\Users\Schuyler\AppData\Local\Temp\ccmSbW6n.s 			page 13


 202              		.loc 1 477 0
 203 0040 0026     		movs	r6, #0
 204              	.LVL22:
 476:main.c        ****                     DriveTimeCount = 0;
 205              		.loc 1 476 0
 206 0042 0425     		movs	r5, #4
 207              	.LVL23:
 475:main.c        ****                     error_state = fromDrive;
 208              		.loc 1 475 0
 209 0044 0524     		movs	r4, #5
 210              	.LVL24:
 211 0046 0FE0     		b	.L4
 212              	.LVL25:
 213              	.L30:
 478:main.c        ****                     break;
 479:main.c        ****                 }
 480:main.c        ****                 
 481:main.c        ****                 if (!HV_Read())
 482:main.c        ****                     state = LV;
 483:main.c        ****                 
 484:main.c        ****                 if (!Drive_Read())
 485:main.c        ****                     state = HV_Enabled;
 214              		.loc 1 485 0
 215 0048 0324     		movs	r4, #3
 216              	.LVL26:
 217 004a 0DE0     		b	.L4
 218              	.LVL27:
 219              	.L31:
 486:main.c        ****                 
 487:main.c        ****                     
 488:main.c        ****                 // need to map ABS_Motor_RPM into 1-253 scale.
 489:main.c        ****                 
 490:main.c        ****                 /*
 491:main.c        ****                 if (ABS_Motor_RPM>=253)
 492:main.c        ****                 {
 493:main.c        ****                     direction=-1;
 494:main.c        ****                 }
 495:main.c        ****                 else if (ABS_Motor_RPM<=1)
 496:main.c        ****                 {
 497:main.c        ****                     direction=1;
 498:main.c        ****                 }
 499:main.c        ****                 value+=direction;
 500:main.c        ****                 //CyDelay(100);
 501:main.c        ****                 */
 502:main.c        ****             break;
 503:main.c        ****                 
 504:main.c        **** 	        case Fault:
 505:main.c        ****                 
 506:main.c        ****                 CAN_GlobalIntEnable();
 507:main.c        ****                 CAN_Init();
 508:main.c        ****                 CAN_Start();
 509:main.c        ****                 
 510:main.c        ****                 can_send_status(state);
 511:main.c        ****                 
 512:main.c        ****                 //
 513:main.c        ****                 // RGB code goes here
 514:main.c        ****                 // flashing red
ARM GAS  C:\Users\Schuyler\AppData\Local\Temp\ccmSbW6n.s 			page 14


 515:main.c        ****                 RGB3_1_Write(1);
 516:main.c        ****                 RGB2_1_Write(1);
 517:main.c        ****                 RGB1_1_Write(1);
 518:main.c        ****                 
 519:main.c        ****                 RGB3_2_Write(1);
 520:main.c        ****                 RGB2_2_Write(1);
 521:main.c        ****                 RGB1_2_Write(1);
 522:main.c        ****                 
 523:main.c        ****                 RGB3_1_Write(0);
 524:main.c        ****                 CyDelay(1000);
 525:main.c        ****                 RGB3_1_Write(1);
 526:main.c        ****                 CyDelay(1000);
 527:main.c        ****                 
 528:main.c        ****                 Buzzer_Write(0);
 529:main.c        ****                 
 530:main.c        ****                 if(error_state == fromLV)
 531:main.c        ****                 {
 532:main.c        ****                     if(!Drive_Read())
 533:main.c        ****                     {
 534:main.c        ****                         state = LV;
 535:main.c        ****                         error_state = OK;
 220              		.loc 1 535 0
 221 004c 0025     		movs	r5, #0
 222              	.LVL28:
 534:main.c        ****                         error_state = OK;
 223              		.loc 1 534 0
 224 004e 0124     		movs	r4, #1
 225              	.LVL29:
 226 0050 0AE0     		b	.L4
 227              	.LVL30:
 228              	.L32:
 536:main.c        ****                     }
 537:main.c        ****                 }
 538:main.c        ****                 else if (error_state == fromPrecharging)
 539:main.c        ****                 {
 540:main.c        ****                     if(!Drive_Read() && !HV_Read())
 541:main.c        ****                     {
 542:main.c        ****                         state = LV;
 543:main.c        ****                         error_state = OK;
 229              		.loc 1 543 0
 230 0052 0025     		movs	r5, #0
 231              	.LVL31:
 542:main.c        ****                         error_state = OK;
 232              		.loc 1 542 0
 233 0054 0124     		movs	r4, #1
 234              	.LVL32:
 235 0056 07E0     		b	.L4
 236              	.LVL33:
 237              	.L33:
 544:main.c        ****                     }
 545:main.c        ****                 }
 546:main.c        ****                 else if (error_state == fromHV_Enabled)
 547:main.c        ****                 {
 548:main.c        ****                     if(!Drive_Read())
 549:main.c        ****                     {
 550:main.c        ****                         state = HV_Enabled;
 551:main.c        ****                         error_state = OK;
ARM GAS  C:\Users\Schuyler\AppData\Local\Temp\ccmSbW6n.s 			page 15


 238              		.loc 1 551 0
 239 0058 0025     		movs	r5, #0
 240              	.LVL34:
 550:main.c        ****                         error_state = OK;
 241              		.loc 1 550 0
 242 005a 0324     		movs	r4, #3
 243              	.LVL35:
 244 005c 04E0     		b	.L4
 245              	.LVL36:
 246              	.L34:
 552:main.c        ****                     }
 553:main.c        ****                 }
 554:main.c        ****                 else if (error_state == fromDrive)
 555:main.c        ****                 {
 556:main.c        ****                     can_get(data_queue, &data_head, &data_tail); // clears queue before filling
 557:main.c        ****                     
 558:main.c        ****                     can_send_cmd(1,Throttle_High,Throttle_Low); // setInterlock
 559:main.c        ****                     
 560:main.c        ****                     CyDelay(200);
 561:main.c        ****                     
 562:main.c        ****                     // Curtis Come back online again without error
 563:main.c        ****                     if((Curtis_Heart_Beat_Check())) // EDIT: Removed !(Curtis_Fault_Check(data_queu
 564:main.c        ****                     {
 565:main.c        ****                         state = LV;
 566:main.c        ****                         error_state = OK;
 247              		.loc 1 566 0
 248 005e 0025     		movs	r5, #0
 249              	.LVL37:
 565:main.c        ****                         error_state = OK;
 250              		.loc 1 565 0
 251 0060 0124     		movs	r4, #1
 252              	.LVL38:
 253 0062 01E0     		b	.L4
 254              	.LVL39:
 255              	.L35:
 567:main.c        ****                     }
 568:main.c        ****                     else if(0xFF == ACK_RX) //ACK received
 569:main.c        ****                     {
 570:main.c        ****                         state = HV_Enabled;
 571:main.c        ****                         error_state = OK;
 256              		.loc 1 571 0
 257 0064 0025     		movs	r5, #0
 258              	.LVL40:
 570:main.c        ****                         error_state = OK;
 259              		.loc 1 570 0
 260 0066 0324     		movs	r4, #3
 261              	.LVL41:
 262              	.L4:
 263              	.LBE2:
 189:main.c        ****         RGB2_2_Write(1);
 264              		.loc 1 189 0
 265 0068 0120     		movs	r0, #1
 266 006a FFF7FEFF 		bl	RGB3_2_Write
 267              	.LVL42:
 190:main.c        ****         RGB1_2_Write(1);
 268              		.loc 1 190 0
 269 006e 0120     		movs	r0, #1
ARM GAS  C:\Users\Schuyler\AppData\Local\Temp\ccmSbW6n.s 			page 16


 270 0070 FFF7FEFF 		bl	RGB2_2_Write
 271              	.LVL43:
 191:main.c        ****             
 272              		.loc 1 191 0
 273 0074 0120     		movs	r0, #1
 274 0076 FFF7FEFF 		bl	RGB1_2_Write
 275              	.LVL44:
 193:main.c        ****         {    
 276              		.loc 1 193 0
 277 007a 052C     		cmp	r4, #5
 278 007c 00F2C281 		bhi	.L5
 279 0080 DFE814F0 		tbh	[pc, r4, lsl #1]
 280              	.L7:
 281 0084 0600     		.2byte	(.L6-.L7)/2
 282 0086 2500     		.2byte	(.L8-.L7)/2
 283 0088 5800     		.2byte	(.L9-.L7)/2
 284 008a 9000     		.2byte	(.L10-.L7)/2
 285 008c E800     		.2byte	(.L11-.L7)/2
 286 008e 5B01     		.2byte	(.L12-.L7)/2
 287              		.p2align 1
 288              	.L6:
 289              	.LBB5:
 200:main.c        ****                 CAN_Init();
 290              		.loc 1 200 0
 291 0090 FFF7FEFF 		bl	CAN_GlobalIntEnable
 292              	.LVL45:
 201:main.c        ****                 CAN_Start();
 293              		.loc 1 201 0
 294 0094 FFF7FEFF 		bl	CAN_Init
 295              	.LVL46:
 202:main.c        ****                 
 296              		.loc 1 202 0
 297 0098 FFF7FEFF 		bl	CAN_Start
 298              	.LVL47:
 205:main.c        **** 
 299              		.loc 1 205 0
 300 009c 2046     		mov	r0, r4
 301 009e FFF7FEFF 		bl	can_send_status
 302              	.LVL48:
 210:main.c        ****                 
 303              		.loc 1 210 0
 304 00a2 FFF7FEFF 		bl	LCD_Start
 305              	.LVL49:
 214:main.c        ****                 WaveDAC8_1_SetValue(253);
 306              		.loc 1 214 0
 307 00a6 0120     		movs	r0, #1
 308 00a8 FFF7FEFF 		bl	Buzzer_Write
 309              	.LVL50:
 215:main.c        ****                 CyDelay(50);
 310              		.loc 1 215 0
 311 00ac FD20     		movs	r0, #253
 312 00ae FFF7FEFF 		bl	WaveDAC8_1_VDAC8_SetValue
 313              	.LVL51:
 216:main.c        ****                 
 314              		.loc 1 216 0
 315 00b2 3220     		movs	r0, #50
 316 00b4 FFF7FEFF 		bl	CyDelay
ARM GAS  C:\Users\Schuyler\AppData\Local\Temp\ccmSbW6n.s 			page 17


 317              	.LVL52:
 251:main.c        ****                 WaveDAC8_1_SetValue(250);
 318              		.loc 1 251 0
 319 00b8 0020     		movs	r0, #0
 320 00ba FFF7FEFF 		bl	Buzzer_Write
 321              	.LVL53:
 252:main.c        ****                 //CyDelay(5000);
 322              		.loc 1 252 0
 323 00be FA20     		movs	r0, #250
 324 00c0 FFF7FEFF 		bl	WaveDAC8_1_VDAC8_SetValue
 325              	.LVL54:
 254:main.c        ****                 
 326              		.loc 1 254 0
 327 00c4 0020     		movs	r0, #0
 328 00c6 FFF7FEFF 		bl	WaveDAC8_1_VDAC8_SetValue
 329              	.LVL55:
 256:main.c        ****                 
 330              		.loc 1 256 0
 331 00ca 0124     		movs	r4, #1
 258:main.c        ****                 
 332              		.loc 1 258 0
 333 00cc CCE7     		b	.L4
 334              	.LVL56:
 335              	.L8:
 262:main.c        ****                 
 336              		.loc 1 262 0
 337 00ce 0020     		movs	r0, #0
 338 00d0 0146     		mov	r1, r0
 339 00d2 0246     		mov	r2, r0
 340 00d4 FFF7FEFF 		bl	can_send_cmd
 341              	.LVL57:
 264:main.c        ****                 CAN_Init();
 342              		.loc 1 264 0
 343 00d8 FFF7FEFF 		bl	CAN_GlobalIntEnable
 344              	.LVL58:
 265:main.c        ****                 CAN_Start();
 345              		.loc 1 265 0
 346 00dc FFF7FEFF 		bl	CAN_Init
 347              	.LVL59:
 266:main.c        ****           
 348              		.loc 1 266 0
 349 00e0 FFF7FEFF 		bl	CAN_Start
 350              	.LVL60:
 268:main.c        ****                 
 351              		.loc 1 268 0
 352 00e4 2046     		mov	r0, r4
 353 00e6 FFF7FEFF 		bl	can_send_status
 354              	.LVL61:
 270:main.c        ****                 
 355              		.loc 1 270 0
 356 00ea 04A8     		add	r0, sp, #16
 357 00ec 811E     		subs	r1, r0, #2
 358 00ee 021F     		subs	r2, r0, #4
 359 00f0 FFF7FEFF 		bl	can_get
 360              	.LVL62:
 293:main.c        ****                 
 361              		.loc 1 293 0
ARM GAS  C:\Users\Schuyler\AppData\Local\Temp\ccmSbW6n.s 			page 18


 362 00f4 0020     		movs	r0, #0
 363 00f6 FFF7FEFF 		bl	Buzzer_Write
 364              	.LVL63:
 301:main.c        ****                 RGB2_1_Write(1);
 365              		.loc 1 301 0
 366 00fa 0020     		movs	r0, #0
 367 00fc FFF7FEFF 		bl	RGB3_1_Write
 368              	.LVL64:
 302:main.c        ****                 RGB1_1_Write(0);
 369              		.loc 1 302 0
 370 0100 0120     		movs	r0, #1
 371 0102 FFF7FEFF 		bl	RGB2_1_Write
 372              	.LVL65:
 303:main.c        ****                 
 373              		.loc 1 303 0
 374 0106 0020     		movs	r0, #0
 375 0108 FFF7FEFF 		bl	RGB1_1_Write
 376              	.LVL66:
 305:main.c        ****                 RGB2_2_Write(1);
 377              		.loc 1 305 0
 378 010c 0120     		movs	r0, #1
 379 010e FFF7FEFF 		bl	RGB3_2_Write
 380              	.LVL67:
 306:main.c        ****                 RGB1_2_Write(1);
 381              		.loc 1 306 0
 382 0112 0120     		movs	r0, #1
 383 0114 FFF7FEFF 		bl	RGB2_2_Write
 384              	.LVL68:
 307:main.c        ****                 
 385              		.loc 1 307 0
 386 0118 0120     		movs	r0, #1
 387 011a FFF7FEFF 		bl	RGB1_2_Write
 388              	.LVL69:
 309:main.c        ****                 {
 389              		.loc 1 309 0
 390 011e FFF7FEFF 		bl	Drive_Read
 391              	.LVL70:
 392 0122 0028     		cmp	r0, #0
 393 0124 7FF47CAF 		bne	.L21
 316:main.c        ****                 {
 394              		.loc 1 316 0
 395 0128 FFF7FEFF 		bl	HV_Read
 396              	.LVL71:
 397 012c 0028     		cmp	r0, #0
 398 012e 7FF47AAF 		bne	.L22
 399 0132 99E7     		b	.L4
 400              	.L9:
 326:main.c        ****                 CAN_Init();
 401              		.loc 1 326 0
 402 0134 FFF7FEFF 		bl	CAN_GlobalIntEnable
 403              	.LVL72:
 327:main.c        ****                 CAN_Start();
 404              		.loc 1 327 0
 405 0138 FFF7FEFF 		bl	CAN_Init
 406              	.LVL73:
 328:main.c        ****                 
 407              		.loc 1 328 0
ARM GAS  C:\Users\Schuyler\AppData\Local\Temp\ccmSbW6n.s 			page 19


 408 013c FFF7FEFF 		bl	CAN_Start
 409              	.LVL74:
 330:main.c        ****                 
 410              		.loc 1 330 0
 411 0140 2046     		mov	r0, r4
 412 0142 FFF7FEFF 		bl	can_send_status
 413              	.LVL75:
 332:main.c        ****                 RGB2_1_Write(0);
 414              		.loc 1 332 0
 415 0146 0020     		movs	r0, #0
 416 0148 FFF7FEFF 		bl	RGB3_1_Write
 417              	.LVL76:
 333:main.c        ****                 RGB1_1_Write(1);
 418              		.loc 1 333 0
 419 014c 0020     		movs	r0, #0
 420 014e FFF7FEFF 		bl	RGB2_1_Write
 421              	.LVL77:
 334:main.c        ****                 
 422              		.loc 1 334 0
 423 0152 0120     		movs	r0, #1
 424 0154 FFF7FEFF 		bl	RGB1_1_Write
 425              	.LVL78:
 336:main.c        ****                 RGB2_2_Write(1);
 426              		.loc 1 336 0
 427 0158 0120     		movs	r0, #1
 428 015a FFF7FEFF 		bl	RGB3_2_Write
 429              	.LVL79:
 337:main.c        ****                 RGB1_2_Write(1);
 430              		.loc 1 337 0
 431 015e 0120     		movs	r0, #1
 432 0160 FFF7FEFF 		bl	RGB2_2_Write
 433              	.LVL80:
 338:main.c        ****                 
 434              		.loc 1 338 0
 435 0164 0120     		movs	r0, #1
 436 0166 FFF7FEFF 		bl	RGB1_2_Write
 437              	.LVL81:
 340:main.c        ****                 
 438              		.loc 1 340 0
 439 016a 0020     		movs	r0, #0
 440 016c FFF7FEFF 		bl	Buzzer_Write
 441              	.LVL82:
 343:main.c        ****                 
 442              		.loc 1 343 0
 443 0170 0024     		movs	r4, #0
 444              	.LVL83:
 445              	.L14:
 446              	.LBB4:
 347:main.c        ****                 
 447              		.loc 1 347 0
 448 0172 0120     		movs	r0, #1
 449 0174 0021     		movs	r1, #0
 450 0176 0A46     		mov	r2, r1
 451 0178 FFF7FEFF 		bl	can_send_cmd
 452              	.LVL84:
 349:main.c        ****                     // UNUSED //uint8_t MainState = can_read(data_queue, data_head, data_tail, 0x05
 453              		.loc 1 349 0
ARM GAS  C:\Users\Schuyler\AppData\Local\Temp\ccmSbW6n.s 			page 20


 454 017c 04A8     		add	r0, sp, #16
 455 017e 811E     		subs	r1, r0, #2
 456 0180 021F     		subs	r2, r0, #4
 457 0182 FFF7FEFF 		bl	can_get
 458              	.LVL85:
 351:main.c        ****                     // UNUSED //uint8_t NomialVolt =  can_read(data_queue, data_head, data_tail, 0x
 459              		.loc 1 351 0
 460 0186 A94B     		ldr	r3, .L37
 461 0188 1B78     		ldrb	r3, [r3]	@ zero_extendqisi2
 462 018a DBB2     		uxtb	r3, r3
 463              	.LVL86:
 354:main.c        ****                     {
 464              		.loc 1 354 0
 465 018c 192B     		cmp	r3, #25
 466 018e 3FF64CAF 		bhi	.L23
 361:main.c        ****                 
 467              		.loc 1 361 0
 468 0192 0134     		adds	r4, r4, #1
 469              	.LVL87:
 363:main.c        ****                     {
 470              		.loc 1 363 0
 471 0194 0A2C     		cmp	r4, #10
 472 0196 3FF44AAF 		beq	.L24
 370:main.c        ****                 }    
 473              		.loc 1 370 0
 474 019a 4FF47A70 		mov	r0, #1000
 475 019e FFF7FEFF 		bl	CyDelay
 476              	.LVL88:
 477              	.LBE4:
 371:main.c        ****                 
 478              		.loc 1 371 0
 479 01a2 E6E7     		b	.L14
 480              	.LVL89:
 481              	.L10:
 377:main.c        ****                 CAN_Init();
 482              		.loc 1 377 0
 483 01a4 FFF7FEFF 		bl	CAN_GlobalIntEnable
 484              	.LVL90:
 378:main.c        ****                 CAN_Start();
 485              		.loc 1 378 0
 486 01a8 FFF7FEFF 		bl	CAN_Init
 487              	.LVL91:
 379:main.c        ****                 
 488              		.loc 1 379 0
 489 01ac FFF7FEFF 		bl	CAN_Start
 490              	.LVL92:
 381:main.c        ****                 
 491              		.loc 1 381 0
 492 01b0 2046     		mov	r0, r4
 493 01b2 FFF7FEFF 		bl	can_send_status
 494              	.LVL93:
 386:main.c        ****                 RGB2_1_Write(1);
 495              		.loc 1 386 0
 496 01b6 0120     		movs	r0, #1
 497 01b8 FFF7FEFF 		bl	RGB3_1_Write
 498              	.LVL94:
 387:main.c        ****                 RGB1_1_Write(0);
ARM GAS  C:\Users\Schuyler\AppData\Local\Temp\ccmSbW6n.s 			page 21


 499              		.loc 1 387 0
 500 01bc 0120     		movs	r0, #1
 501 01be FFF7FEFF 		bl	RGB2_1_Write
 502              	.LVL95:
 388:main.c        ****                 
 503              		.loc 1 388 0
 504 01c2 0020     		movs	r0, #0
 505 01c4 FFF7FEFF 		bl	RGB1_1_Write
 506              	.LVL96:
 390:main.c        ****                 RGB2_2_Write(1);
 507              		.loc 1 390 0
 508 01c8 0120     		movs	r0, #1
 509 01ca FFF7FEFF 		bl	RGB3_2_Write
 510              	.LVL97:
 391:main.c        ****                 RGB1_2_Write(1);
 511              		.loc 1 391 0
 512 01ce 0120     		movs	r0, #1
 513 01d0 FFF7FEFF 		bl	RGB2_2_Write
 514              	.LVL98:
 392:main.c        ****                 //CyDelay(5000); ///for debug
 515              		.loc 1 392 0
 516 01d4 0120     		movs	r0, #1
 517 01d6 FFF7FEFF 		bl	RGB1_2_Write
 518              	.LVL99:
 395:main.c        ****                 
 519              		.loc 1 395 0
 520 01da 0020     		movs	r0, #0
 521 01dc FFF7FEFF 		bl	Buzzer_Write
 522              	.LVL100:
 397:main.c        ****                 {
 523              		.loc 1 397 0
 524 01e0 FFF7FEFF 		bl	Drive_Read
 525              	.LVL101:
 526 01e4 08B3     		cbz	r0, .L15
 399:main.c        ****                     can_get(data_queue, &data_head, &data_tail); // clears queue before filling
 527              		.loc 1 399 0
 528 01e6 4FF47A70 		mov	r0, #1000
 529 01ea FFF7FEFF 		bl	CyDelay
 530              	.LVL102:
 400:main.c        ****                     if(can_read(data_queue, data_head, data_tail, 0x0201, 0)==1) // 100 for error t
 531              		.loc 1 400 0
 532 01ee 04A8     		add	r0, sp, #16
 533 01f0 811E     		subs	r1, r0, #2
 534 01f2 021F     		subs	r2, r0, #4
 535 01f4 FFF7FEFF 		bl	can_get
 536              	.LVL103:
 401:main.c        ****                     {
 537              		.loc 1 401 0
 538 01f8 BDF80E10 		ldrh	r1, [sp, #14]
 539 01fc BDF80C20 		ldrh	r2, [sp, #12]
 540 0200 0023     		movs	r3, #0
 541 0202 0093     		str	r3, [sp]
 542 0204 04A8     		add	r0, sp, #16
 543 0206 40F20123 		movw	r3, #513
 544 020a FFF7FEFF 		bl	can_read
 545              	.LVL104:
 546 020e 0128     		cmp	r0, #1
ARM GAS  C:\Users\Schuyler\AppData\Local\Temp\ccmSbW6n.s 			page 22


 547 0210 7FF410AF 		bne	.L25
 403:main.c        ****                         CyDelay(1000);
 548              		.loc 1 403 0
 549 0214 FFF7FEFF 		bl	Buzzer_Write
 550              	.LVL105:
 404:main.c        ****                         Buzzer_Write(0);
 551              		.loc 1 404 0
 552 0218 4FF47A70 		mov	r0, #1000
 553 021c FFF7FEFF 		bl	CyDelay
 554              	.LVL106:
 405:main.c        ****                         state = Drive;
 555              		.loc 1 405 0
 556 0220 0020     		movs	r0, #0
 557 0222 FFF7FEFF 		bl	Buzzer_Write
 558              	.LVL107:
 406:main.c        ****                         break;
 559              		.loc 1 406 0
 560 0226 0424     		movs	r4, #4
 407:main.c        ****                     }
 561              		.loc 1 407 0
 562 0228 1EE7     		b	.L4
 563              	.LVL108:
 564              	.L15:
 418:main.c        ****                 {
 565              		.loc 1 418 0
 566 022a FFF7FEFF 		bl	HV_Read
 567              	.LVL109:
 568 022e 8146     		mov	r9, r0
 569 0230 BDF80E10 		ldrh	r1, [sp, #14]
 570 0234 BDF80C20 		ldrh	r2, [sp, #12]
 571 0238 0023     		movs	r3, #0
 572 023a 0093     		str	r3, [sp]
 573 023c 04A8     		add	r0, sp, #16
 574 023e 40F26653 		movw	r3, #1382
 575 0242 FFF7FEFF 		bl	can_read
 576              	.LVL110:
 577 0246 B9F1000F 		cmp	r9, #0
 578 024a 18BF     		it	ne
 579 024c 1928     		cmpne	r0, #25
 580 024e 7FF6F4AE 		bls	.L26
 581 0252 09E7     		b	.L4
 582              	.L11:
 432:main.c        ****                 //
 583              		.loc 1 432 0
 584 0254 2046     		mov	r0, r4
 585 0256 FFF7FEFF 		bl	can_send_status
 586              	.LVL111:
 436:main.c        ****                 RGB2_1_Write(0);
 587              		.loc 1 436 0
 588 025a 0120     		movs	r0, #1
 589 025c FFF7FEFF 		bl	RGB3_1_Write
 590              	.LVL112:
 437:main.c        ****                 RGB1_1_Write(1);
 591              		.loc 1 437 0
 592 0260 0020     		movs	r0, #0
 593 0262 FFF7FEFF 		bl	RGB2_1_Write
 594              	.LVL113:
ARM GAS  C:\Users\Schuyler\AppData\Local\Temp\ccmSbW6n.s 			page 23


 438:main.c        ****                 
 595              		.loc 1 438 0
 596 0266 0120     		movs	r0, #1
 597 0268 FFF7FEFF 		bl	RGB1_1_Write
 598              	.LVL114:
 440:main.c        ****                 RGB2_2_Write(1);
 599              		.loc 1 440 0
 600 026c 0120     		movs	r0, #1
 601 026e FFF7FEFF 		bl	RGB3_2_Write
 602              	.LVL115:
 441:main.c        ****                 RGB1_2_Write(1);
 603              		.loc 1 441 0
 604 0272 0120     		movs	r0, #1
 605 0274 FFF7FEFF 		bl	RGB2_2_Write
 606              	.LVL116:
 442:main.c        ****                 
 607              		.loc 1 442 0
 608 0278 0120     		movs	r0, #1
 609 027a FFF7FEFF 		bl	RGB1_2_Write
 610              	.LVL117:
 455:main.c        ****                 if (DriveTimeCount > 100)
 611              		.loc 1 455 0
 612 027e 0136     		adds	r6, r6, #1
 613              	.LVL118:
 456:main.c        ****                 {
 614              		.loc 1 456 0
 615 0280 642E     		cmp	r6, #100
 616 0282 12D9     		bls	.L27
 617              	.LVL119:
 459:main.c        ****                     ACK = can_read(data_queue, data_head, data_tail, 0x0666, 0);
 618              		.loc 1 459 0
 619 0284 04A8     		add	r0, sp, #16
 620 0286 811E     		subs	r1, r0, #2
 621 0288 021F     		subs	r2, r0, #4
 622 028a FFF7FEFF 		bl	can_get
 623              	.LVL120:
 460:main.c        ****                 }
 624              		.loc 1 460 0
 625 028e BDF80E10 		ldrh	r1, [sp, #14]
 626 0292 BDF80C20 		ldrh	r2, [sp, #12]
 627 0296 0026     		movs	r6, #0
 628 0298 0096     		str	r6, [sp]
 629 029a 04A8     		add	r0, sp, #16
 630 029c 40F26663 		movw	r3, #1638
 631 02a0 FFF7FEFF 		bl	can_read
 632              	.LVL121:
 633 02a4 5FFA80FA 		uxtb	r10, r0
 634              	.LVL122:
 635 02a8 01E0     		b	.L16
 636              	.LVL123:
 637              	.L27:
 453:main.c        ****                 
 638              		.loc 1 453 0
 639 02aa 4FF0FF0A 		mov	r10, #255
 640              	.LVL124:
 641              	.L16:
 463:main.c        ****                 uint16_t Throttle_High = can_read(data_queue, data_head, data_tail, 0x0200, 1); // 
ARM GAS  C:\Users\Schuyler\AppData\Local\Temp\ccmSbW6n.s 			page 24


 642              		.loc 1 463 0
 643 02ae BDF80E10 		ldrh	r1, [sp, #14]
 644 02b2 BDF80C20 		ldrh	r2, [sp, #12]
 645 02b6 0423     		movs	r3, #4
 646 02b8 0093     		str	r3, [sp]
 647 02ba 04A8     		add	r0, sp, #16
 648 02bc 40F26653 		movw	r3, #1382
 649 02c0 FFF7FEFF 		bl	can_read
 650              	.LVL125:
 651 02c4 5FFA80FB 		uxtb	fp, r0
 652              	.LVL126:
 464:main.c        ****                 uint16_t Throttle_Low = can_read(data_queue, data_head, data_tail, 0x0200, 2);
 653              		.loc 1 464 0
 654 02c8 BDF80E10 		ldrh	r1, [sp, #14]
 655 02cc BDF80C20 		ldrh	r2, [sp, #12]
 656 02d0 4FF00109 		mov	r9, #1
 657 02d4 CDF80090 		str	r9, [sp]
 658 02d8 04A8     		add	r0, sp, #16
 659 02da 4FF40073 		mov	r3, #512
 660 02de FFF7FEFF 		bl	can_read
 661              	.LVL127:
 662 02e2 0746     		mov	r7, r0
 663              	.LVL128:
 465:main.c        ****                 
 664              		.loc 1 465 0
 665 02e4 BDF80E10 		ldrh	r1, [sp, #14]
 666 02e8 BDF80C20 		ldrh	r2, [sp, #12]
 667 02ec 0223     		movs	r3, #2
 668 02ee 0093     		str	r3, [sp]
 669 02f0 04A8     		add	r0, sp, #16
 670 02f2 4FF40073 		mov	r3, #512
 671 02f6 FFF7FEFF 		bl	can_read
 672              	.LVL129:
 673 02fa 8046     		mov	r8, r0
 674              	.LVL130:
 467:main.c        ****                 can_send_cmd(1,Throttle_High,Throttle_Low); // setInterlock
 675              		.loc 1 467 0
 676 02fc 5846     		mov	r0, fp
 677 02fe FFF7FEFF 		bl	WaveDAC8_1_VDAC8_SetValue
 678              	.LVL131:
 468:main.c        ****                 
 679              		.loc 1 468 0
 680 0302 4846     		mov	r0, r9
 681 0304 3946     		mov	r1, r7
 682 0306 4246     		mov	r2, r8
 683 0308 FFF7FEFF 		bl	can_send_cmd
 684              	.LVL132:
 473:main.c        ****                 {
 685              		.loc 1 473 0
 686 030c FFF7FEFF 		bl	Curtis_Heart_Beat_Check
 687              	.LVL133:
 472:main.c        ****                     (!Curtis_Heart_Beat_Check())) // EDIT: Removed | CurtisFaultCheck from this 
 688              		.loc 1 472 0
 689 0310 B0FA80F0 		clz	r0, r0
 690 0314 4009     		lsrs	r0, r0, #5
 691 0316 BAF1FF0F 		cmp	r10, #255
 692 031a 18BF     		it	ne
ARM GAS  C:\Users\Schuyler\AppData\Local\Temp\ccmSbW6n.s 			page 25


 693 031c 40F00100 		orrne	r0, r0, #1
 694 0320 0028     		cmp	r0, #0
 695 0322 7FF48DAE 		bne	.L28
 481:main.c        ****                     state = LV;
 696              		.loc 1 481 0
 697 0326 FFF7FEFF 		bl	HV_Read
 698              	.LVL134:
 699 032a 00B9     		cbnz	r0, .L17
 482:main.c        ****                 
 700              		.loc 1 482 0
 701 032c 4C46     		mov	r4, r9
 702              	.LVL135:
 703              	.L17:
 484:main.c        ****                     state = HV_Enabled;
 704              		.loc 1 484 0
 705 032e FFF7FEFF 		bl	Drive_Read
 706              	.LVL136:
 707 0332 0028     		cmp	r0, #0
 708 0334 3FF488AE 		beq	.L30
 709 0338 96E6     		b	.L4
 710              	.LVL137:
 711              	.L12:
 506:main.c        ****                 CAN_Init();
 712              		.loc 1 506 0
 713 033a FFF7FEFF 		bl	CAN_GlobalIntEnable
 714              	.LVL138:
 507:main.c        ****                 CAN_Start();
 715              		.loc 1 507 0
 716 033e FFF7FEFF 		bl	CAN_Init
 717              	.LVL139:
 508:main.c        ****                 
 718              		.loc 1 508 0
 719 0342 FFF7FEFF 		bl	CAN_Start
 720              	.LVL140:
 510:main.c        ****                 
 721              		.loc 1 510 0
 722 0346 2046     		mov	r0, r4
 723 0348 FFF7FEFF 		bl	can_send_status
 724              	.LVL141:
 515:main.c        ****                 RGB2_1_Write(1);
 725              		.loc 1 515 0
 726 034c 0120     		movs	r0, #1
 727 034e FFF7FEFF 		bl	RGB3_1_Write
 728              	.LVL142:
 516:main.c        ****                 RGB1_1_Write(1);
 729              		.loc 1 516 0
 730 0352 0120     		movs	r0, #1
 731 0354 FFF7FEFF 		bl	RGB2_1_Write
 732              	.LVL143:
 517:main.c        ****                 
 733              		.loc 1 517 0
 734 0358 0120     		movs	r0, #1
 735 035a FFF7FEFF 		bl	RGB1_1_Write
 736              	.LVL144:
 519:main.c        ****                 RGB2_2_Write(1);
 737              		.loc 1 519 0
 738 035e 0120     		movs	r0, #1
ARM GAS  C:\Users\Schuyler\AppData\Local\Temp\ccmSbW6n.s 			page 26


 739 0360 FFF7FEFF 		bl	RGB3_2_Write
 740              	.LVL145:
 520:main.c        ****                 RGB1_2_Write(1);
 741              		.loc 1 520 0
 742 0364 0120     		movs	r0, #1
 743 0366 FFF7FEFF 		bl	RGB2_2_Write
 744              	.LVL146:
 521:main.c        ****                 
 745              		.loc 1 521 0
 746 036a 0120     		movs	r0, #1
 747 036c FFF7FEFF 		bl	RGB1_2_Write
 748              	.LVL147:
 523:main.c        ****                 CyDelay(1000);
 749              		.loc 1 523 0
 750 0370 0020     		movs	r0, #0
 751 0372 FFF7FEFF 		bl	RGB3_1_Write
 752              	.LVL148:
 524:main.c        ****                 RGB3_1_Write(1);
 753              		.loc 1 524 0
 754 0376 4FF47A70 		mov	r0, #1000
 755 037a FFF7FEFF 		bl	CyDelay
 756              	.LVL149:
 525:main.c        ****                 CyDelay(1000);
 757              		.loc 1 525 0
 758 037e 0120     		movs	r0, #1
 759 0380 FFF7FEFF 		bl	RGB3_1_Write
 760              	.LVL150:
 526:main.c        ****                 
 761              		.loc 1 526 0
 762 0384 4FF47A70 		mov	r0, #1000
 763 0388 FFF7FEFF 		bl	CyDelay
 764              	.LVL151:
 528:main.c        ****                 
 765              		.loc 1 528 0
 766 038c 0020     		movs	r0, #0
 767 038e FFF7FEFF 		bl	Buzzer_Write
 768              	.LVL152:
 530:main.c        ****                 {
 769              		.loc 1 530 0
 770 0392 012D     		cmp	r5, #1
 771 0394 05D1     		bne	.L18
 532:main.c        ****                     {
 772              		.loc 1 532 0
 773 0396 FFF7FEFF 		bl	Drive_Read
 774              	.LVL153:
 775 039a 0028     		cmp	r0, #0
 776 039c 3FF456AE 		beq	.L31
 777 03a0 62E6     		b	.L4
 778              	.L18:
 538:main.c        ****                 {
 779              		.loc 1 538 0
 780 03a2 022D     		cmp	r5, #2
 781 03a4 0AD1     		bne	.L19
 540:main.c        ****                     {
 782              		.loc 1 540 0
 783 03a6 FFF7FEFF 		bl	Drive_Read
 784              	.LVL154:
ARM GAS  C:\Users\Schuyler\AppData\Local\Temp\ccmSbW6n.s 			page 27


 785 03aa 0028     		cmp	r0, #0
 786 03ac 7FF45CAE 		bne	.L4
 540:main.c        ****                     {
 787              		.loc 1 540 0 is_stmt 0 discriminator 1
 788 03b0 FFF7FEFF 		bl	HV_Read
 789              	.LVL155:
 790 03b4 0028     		cmp	r0, #0
 791 03b6 3FF44CAE 		beq	.L32
 792 03ba 55E6     		b	.L4
 793              	.L19:
 546:main.c        ****                 {
 794              		.loc 1 546 0 is_stmt 1
 795 03bc 032D     		cmp	r5, #3
 796 03be 05D1     		bne	.L20
 548:main.c        ****                     {
 797              		.loc 1 548 0
 798 03c0 FFF7FEFF 		bl	Drive_Read
 799              	.LVL156:
 800 03c4 0028     		cmp	r0, #0
 801 03c6 3FF447AE 		beq	.L33
 802 03ca 4DE6     		b	.L4
 803              	.L20:
 554:main.c        ****                 {
 804              		.loc 1 554 0
 805 03cc 042D     		cmp	r5, #4
 806 03ce 7FF44BAE 		bne	.L4
 556:main.c        ****                     
 807              		.loc 1 556 0
 808 03d2 04A8     		add	r0, sp, #16
 809 03d4 811E     		subs	r1, r0, #2
 810 03d6 021F     		subs	r2, r0, #4
 811 03d8 FFF7FEFF 		bl	can_get
 812              	.LVL157:
 558:main.c        ****                     
 813              		.loc 1 558 0
 814 03dc 0120     		movs	r0, #1
 815 03de 3946     		mov	r1, r7
 816 03e0 4246     		mov	r2, r8
 817 03e2 FFF7FEFF 		bl	can_send_cmd
 818              	.LVL158:
 560:main.c        ****                     
 819              		.loc 1 560 0
 820 03e6 C820     		movs	r0, #200
 821 03e8 FFF7FEFF 		bl	CyDelay
 822              	.LVL159:
 563:main.c        ****                     {
 823              		.loc 1 563 0
 824 03ec FFF7FEFF 		bl	Curtis_Heart_Beat_Check
 825              	.LVL160:
 826 03f0 0028     		cmp	r0, #0
 827 03f2 7FF434AE 		bne	.L34
 568:main.c        ****                     {
 828              		.loc 1 568 0
 829 03f6 0D4B     		ldr	r3, .L37
 830 03f8 5B88     		ldrh	r3, [r3, #2]
 831 03fa 9BB2     		uxth	r3, r3
 832 03fc FF2B     		cmp	r3, #255
ARM GAS  C:\Users\Schuyler\AppData\Local\Temp\ccmSbW6n.s 			page 28


 833 03fe 7FF433AE 		bne	.L4
 834 0402 2FE6     		b	.L35
 835              	.L5:
 572:main.c        ****                     }                   
 573:main.c        ****                 }
 574:main.c        ****             break;
 575:main.c        ****                 
 576:main.c        ****             default:
 577:main.c        ****                 RGB3_1_Write(1);
 836              		.loc 1 577 0
 837 0404 0120     		movs	r0, #1
 838 0406 FFF7FEFF 		bl	RGB3_1_Write
 839              	.LVL161:
 578:main.c        ****                 RGB2_1_Write(1);
 840              		.loc 1 578 0
 841 040a 0120     		movs	r0, #1
 842 040c FFF7FEFF 		bl	RGB2_1_Write
 843              	.LVL162:
 579:main.c        ****                 RGB1_1_Write(1);
 844              		.loc 1 579 0
 845 0410 0120     		movs	r0, #1
 846 0412 FFF7FEFF 		bl	RGB1_1_Write
 847              	.LVL163:
 580:main.c        ****                 
 581:main.c        ****                 RGB3_2_Write(1);
 848              		.loc 1 581 0
 849 0416 0120     		movs	r0, #1
 850 0418 FFF7FEFF 		bl	RGB3_2_Write
 851              	.LVL164:
 582:main.c        ****                 RGB2_2_Write(1);
 852              		.loc 1 582 0
 853 041c 0120     		movs	r0, #1
 854 041e FFF7FEFF 		bl	RGB2_2_Write
 855              	.LVL165:
 583:main.c        ****                 RGB1_2_Write(1);
 856              		.loc 1 583 0
 857 0422 0120     		movs	r0, #1
 858 0424 FFF7FEFF 		bl	RGB1_2_Write
 859              	.LVL166:
 860 0428 1EE6     		b	.L4
 861              	.L38:
 862 042a 00BF     		.align	2
 863              	.L37:
 864 042c 00000000 		.word	.LANCHOR0
 865              	.LBE5:
 866              		.cfi_endproc
 867              	.LFE64:
 868              		.size	main, .-main
 869              		.section	.text.ISR_CAN,"ax",%progbits
 870              		.align	2
 871              		.global	ISR_CAN
 872              		.thumb
 873              		.thumb_func
 874              		.type	ISR_CAN, %function
 875              	ISR_CAN:
 876              	.LFB65:
 584:main.c        **** 
ARM GAS  C:\Users\Schuyler\AppData\Local\Temp\ccmSbW6n.s 			page 29


 585:main.c        ****         }// end of switch
 586:main.c        ****         
 587:main.c        ****         
 588:main.c        ****         //if (receiveMailboxNumber == CAN_RX_MAILBOX_switchStatus)
 589:main.c        ****         //{
 590:main.c        ****             //LCD_Position(1u, 3u);
 591:main.c        ****             //send
 592:main.c        ****             //if (CAN_RX_DATA_BYTE1(CAN_RX_MAILBOX_switchStatus) == SWITCH_PRESSED)
 593:main.c        ****             //{
 594:main.c        ****                 /* Display received switch status on LCD */
 595:main.c        ****             
 596:main.c        ****                 //LCD_PrintString("pressed ");
 597:main.c        **** 
 598:main.c        ****                 /* Increase the PWM pulse width */
 599:main.c        ****                 //pulseWidthValue += PWM_PULSE_WIDTH_STEP;
 600:main.c        **** 
 601:main.c        ****                 /* Send message with the new PWM pulse width */
 602:main.c        ****                 //dataPWM.byte[0u] = pulseWidthValue;
 603:main.c        ****                 //CAN_SendMsg(&messagePWM);
 604:main.c        **** 
 605:main.c        ****                 /* Display value of PWM pulse width on LCD */
 606:main.c        ****                 //LCD_Position(0u, 14u);
 607:main.c        ****                 //LCD_PrintInt8(pulseWidthValue);
 608:main.c        **** 
 609:main.c        ****             //}
 610:main.c        ****             //else
 611:main.c        ****             //{
 612:main.c        ****                 /* Display received switch status on LCD */
 613:main.c        ****             //    LCD_PrintString("released");
 614:main.c        ****             //}
 615:main.c        ****             //receiveMailboxNumber = 0xFFu;
 616:main.c        ****         //}
 617:main.c        ****         
 618:main.c        ****         //received
 619:main.c        **** 
 620:main.c        ****         //if (receiveMailboxNumber == CAN_RX_MAILBOX_ADCdata)
 621:main.c        ****         //{
 622:main.c        ****         //    adcData = ((uint16) ((uint16) CAN_RX_DATA_BYTE1(CAN_RX_MAILBOX_ADCdata) << ONE_BYTE_O
 623:main.c        ****         //    CAN_RX_DATA_BYTE2(CAN_RX_MAILBOX_ADCdata);
 624:main.c        ****             
 625:main.c        ****             /* Display received ADC data on LCD */
 626:main.c        ****        //     sprintf(txData, "%u.%.3u", (adcData / 1000u), (adcData % 1000u));
 627:main.c        ****         //    txData[DATA_SIZE - 1u] = (char8) '\0';
 628:main.c        ****             
 629:main.c        ****         //    LCD_Position(0u, 4u);
 630:main.c        ****          //   LCD_PrintString(txData);
 631:main.c        ****          //   receiveMailboxNumber = 0xFFu;
 632:main.c        ****         //}
 633:main.c        ****     } 
 634:main.c        **** }
 635:main.c        **** 
 636:main.c        **** /*
 637:main.c        **** // 0 for HV, 1 for Drive
 638:main.c        **** static uint32 ReadSwSwitch(uint8_t choice)
 639:main.c        **** {
 640:main.c        ****     uint32 heldDown;
 641:main.c        ****     uint32 swStatus;
ARM GAS  C:\Users\Schuyler\AppData\Local\Temp\ccmSbW6n.s 			page 30


 642:main.c        **** 
 643:main.c        ****     swStatus = 0u;  // Switch is not active 
 644:main.c        ****     heldDown = 0u;  // Reset debounce counter
 645:main.c        **** 
 646:main.c        ****     
 647:main.c        ****     if (choice)
 648:main.c        ****         swStatus = Drive_Read();
 649:main.c        ****     else
 650:main.c        ****         swStatus = HV_Read();
 651:main.c        **** 
 652:main.c        ****     return (swStatus);
 653:main.c        **** }
 654:main.c        **** */
 655:main.c        **** /*******************************************************************************
 656:main.c        **** * Function Name: ISR_CAN
 657:main.c        **** ********************************************************************************
 658:main.c        **** *
 659:main.c        **** * Summary:
 660:main.c        **** *  This ISR is executed at a Receive Message event and set receiveMailboxNumber
 661:main.c        **** *  global variable with receive message mailbox number.
 662:main.c        **** *
 663:main.c        **** * Parameters:
 664:main.c        **** *  None.
 665:main.c        **** *
 666:main.c        **** * Return:
 667:main.c        **** *  None.
 668:main.c        **** *
 669:main.c        **** *******************************************************************************/
 670:main.c        **** CY_ISR(ISR_CAN)
 671:main.c        **** {   
 877              		.loc 1 671 0
 878              		.cfi_startproc
 879              		@ args = 0, pretend = 0, frame = 0
 880              		@ frame_needed = 0, uses_anonymous_args = 0
 881              		@ link register save eliminated.
 672:main.c        ****     /* Clear Receive Message flag */
 673:main.c        ****     CAN_INT_SR_REG.byte[1u] = CAN_RX_MESSAGE_MASK;
 882              		.loc 1 673 0
 883 0000 1022     		movs	r2, #16
 884 0002 044B     		ldr	r3, .L40
 885 0004 5A70     		strb	r2, [r3, #1]
 674:main.c        **** 
 675:main.c        ****     /* Set the isrFlag */
 676:main.c        ****     //isrFlag = 1u;    
 677:main.c        **** 
 678:main.c        ****     /* Acknowledges receipt of new message */
 679:main.c        ****     CAN_RX_ACK_MESSAGE(CAN_RX_MAILBOX_0);
 886              		.loc 1 679 0
 887 0006 044A     		ldr	r2, .L40+4
 888 0008 1378     		ldrb	r3, [r2]	@ zero_extendqisi2
 889 000a 43F00103 		orr	r3, r3, #1
 890 000e 1370     		strb	r3, [r2]
 891 0010 7047     		bx	lr
 892              	.L41:
 893 0012 00BF     		.align	2
 894              	.L40:
 895 0014 00A00040 		.word	1073782784
ARM GAS  C:\Users\Schuyler\AppData\Local\Temp\ccmSbW6n.s 			page 31


 896 0018 A0A00040 		.word	1073782944
 897              		.cfi_endproc
 898              	.LFE65:
 899              		.size	ISR_CAN, .-ISR_CAN
 900              		.global	DriveSwitch
 901              		.global	HVSwitch
 902              		.global	ACK_RX
 903              		.global	CURTIS_HEART_BEAT_CHECK
 904              		.global	CURTIS_FAULT_CHECK
 905              		.global	CAPACITOR_VOLT
 906              		.bss
 907              		.align	1
 908              		.set	.LANCHOR0,. + 0
 909              		.type	CAPACITOR_VOLT, %object
 910              		.size	CAPACITOR_VOLT, 1
 911              	CAPACITOR_VOLT:
 912 0000 00       		.space	1
 913 0001 00       		.space	1
 914              		.type	ACK_RX, %object
 915              		.size	ACK_RX, 2
 916              	ACK_RX:
 917 0002 0000     		.space	2
 918              		.type	DriveSwitch, %object
 919              		.size	DriveSwitch, 1
 920              	DriveSwitch:
 921 0004 00       		.space	1
 922              		.type	HVSwitch, %object
 923              		.size	HVSwitch, 1
 924              	HVSwitch:
 925 0005 00       		.space	1
 926              		.type	CURTIS_HEART_BEAT_CHECK, %object
 927              		.size	CURTIS_HEART_BEAT_CHECK, 1
 928              	CURTIS_HEART_BEAT_CHECK:
 929 0006 00       		.space	1
 930              		.type	CURTIS_FAULT_CHECK, %object
 931              		.size	CURTIS_FAULT_CHECK, 1
 932              	CURTIS_FAULT_CHECK:
 933 0007 00       		.space	1
 934              		.text
 935              	.Letext0:
 936              		.file 2 "c:\\program files (x86)\\cypress\\psoc creator\\4.0\\psoc creator\\import\\gnu\\arm\\4.9.
 937              		.file 3 "c:\\program files (x86)\\cypress\\psoc creator\\4.0\\psoc creator\\import\\gnu\\arm\\4.9.
 938              		.file 4 "Generated_Source\\PSoC5/cytypes.h"
 939              		.file 5 "Generated_Source\\PSoC5/CAN.h"
 940              		.file 6 "data.h"
 941              		.file 7 "can_manager.h"
 942              		.file 8 "Generated_Source\\PSoC5/core_cm3.h"
 943              		.file 9 "can_manga.h"
 944              		.file 10 "Generated_Source\\PSoC5/CyLib.h"
 945              		.file 11 "Generated_Source\\PSoC5/Buzzer.h"
 946              		.file 12 "Generated_Source\\PSoC5/WaveDAC8_1_VDAC8.h"
 947              		.file 13 "Generated_Source\\PSoC5/RGB3_1.h"
 948              		.file 14 "Generated_Source\\PSoC5/RGB2_1.h"
 949              		.file 15 "Generated_Source\\PSoC5/RGB1_1.h"
 950              		.file 16 "Generated_Source\\PSoC5/RGB3_2.h"
 951              		.file 17 "Generated_Source\\PSoC5/RGB2_2.h"
 952              		.file 18 "Generated_Source\\PSoC5/RGB1_2.h"
ARM GAS  C:\Users\Schuyler\AppData\Local\Temp\ccmSbW6n.s 			page 32


 953              		.file 19 "Generated_Source\\PSoC5/Drive.h"
 954              		.file 20 "Generated_Source\\PSoC5/HV.h"
 955              		.file 21 "Generated_Source\\PSoC5/LCD.h"
 956              		.file 22 "Generated_Source\\PSoC5/WaveDAC8_1.h"