ARM GAS  C:\Users\Schuyler\AppData\Local\Temp\cc9Z41Wc.s 			page 1


   1              		.syntax unified
   2              		.cpu cortex-m3
   3              		.fpu softvfp
   4              		.eabi_attribute 20, 1
   5              		.eabi_attribute 21, 1
   6              		.eabi_attribute 23, 3
   7              		.eabi_attribute 24, 1
   8              		.eabi_attribute 25, 1
   9              		.eabi_attribute 26, 1
  10              		.eabi_attribute 30, 1
  11              		.eabi_attribute 34, 1
  12              		.eabi_attribute 18, 4
  13              		.thumb
  14              		.syntax unified
  15              		.file	"can_manga.c"
  16              		.text
  17              	.Ltext0:
  18              		.cfi_sections	.debug_frame
  19              		.section	.text.getCapacitorVoltage,"ax",%progbits
  20              		.align	2
  21              		.global	getCapacitorVoltage
  22              		.thumb
  23              		.thumb_func
  24              		.type	getCapacitorVoltage, %function
  25              	getCapacitorVoltage:
  26              	.LFB0:
  27              		.file 1 "can_manga.c"
   1:can_manga.c   **** /* ========================================
   2:can_manga.c   ****  * Can API for FRUCD
   3:can_manga.c   ****  * Schuyler Alschuler 2016 - 2017
   4:can_manga.c   ****  * ========================================
   5:can_manga.c   **** */
   6:can_manga.c   **** 
   7:can_manga.c   **** #include "CAN.h"
   8:can_manga.c   **** #include "can_manga.h"
   9:can_manga.c   **** 
  10:can_manga.c   **** extern volatile uint32_t pedalOK;
  11:can_manga.c   **** 
  12:can_manga.c   **** volatile uint8_t CAPACITOR_VOLT = 0;
  13:can_manga.c   **** volatile uint8_t CURTIS_FAULT_CHECK = 0;
  14:can_manga.c   **** volatile uint8_t CURTIS_HEART_BEAT_CHECK = 0;
  15:can_manga.c   **** volatile uint8_t ACK_RX = 0;
  16:can_manga.c   **** volatile uint8_t ERROR_TOLERANCE = 0;
  17:can_manga.c   **** volatile uint8_t ABS_MOTOR_RPM = 0;
  18:can_manga.c   **** volatile uint8_t THROTTLE_HIGH = 0;
  19:can_manga.c   **** volatile uint8_t THROTTLE_LOW = 0;
  20:can_manga.c   **** 
  21:can_manga.c   **** uint8_t getCapacitorVoltage()
  22:can_manga.c   **** {
  28              		.loc 1 22 0
  29              		.cfi_startproc
  30              		@ args = 0, pretend = 0, frame = 0
  31              		@ frame_needed = 0, uses_anonymous_args = 0
  32              		@ link register save eliminated.
  23:can_manga.c   ****     return CAPACITOR_VOLT;
  33              		.loc 1 23 0
  34 0000 014B     		ldr	r3, .L2
ARM GAS  C:\Users\Schuyler\AppData\Local\Temp\cc9Z41Wc.s 			page 2


  35 0002 1878     		ldrb	r0, [r3]	@ zero_extendqisi2
  24:can_manga.c   **** }
  36              		.loc 1 24 0
  37 0004 7047     		bx	lr
  38              	.L3:
  39 0006 00BF     		.align	2
  40              	.L2:
  41 0008 00000000 		.word	.LANCHOR0
  42              		.cfi_endproc
  43              	.LFE0:
  44              		.size	getCapacitorVoltage, .-getCapacitorVoltage
  45              		.section	.text.getCurtisFaultCheck,"ax",%progbits
  46              		.align	2
  47              		.global	getCurtisFaultCheck
  48              		.thumb
  49              		.thumb_func
  50              		.type	getCurtisFaultCheck, %function
  51              	getCurtisFaultCheck:
  52              	.LFB1:
  25:can_manga.c   **** 
  26:can_manga.c   **** uint8_t getCurtisFaultCheck()
  27:can_manga.c   **** {
  53              		.loc 1 27 0
  54              		.cfi_startproc
  55              		@ args = 0, pretend = 0, frame = 0
  56              		@ frame_needed = 0, uses_anonymous_args = 0
  57              		@ link register save eliminated.
  28:can_manga.c   ****     return CURTIS_FAULT_CHECK;
  58              		.loc 1 28 0
  59 0000 014B     		ldr	r3, .L5
  60 0002 5878     		ldrb	r0, [r3, #1]	@ zero_extendqisi2
  29:can_manga.c   **** }
  61              		.loc 1 29 0
  62 0004 7047     		bx	lr
  63              	.L6:
  64 0006 00BF     		.align	2
  65              	.L5:
  66 0008 00000000 		.word	.LANCHOR0
  67              		.cfi_endproc
  68              	.LFE1:
  69              		.size	getCurtisFaultCheck, .-getCurtisFaultCheck
  70              		.section	.text.getCurtisHeartBeatCheck,"ax",%progbits
  71              		.align	2
  72              		.global	getCurtisHeartBeatCheck
  73              		.thumb
  74              		.thumb_func
  75              		.type	getCurtisHeartBeatCheck, %function
  76              	getCurtisHeartBeatCheck:
  77              	.LFB2:
  30:can_manga.c   **** 
  31:can_manga.c   **** uint8_t getCurtisHeartBeatCheck()
  32:can_manga.c   **** {
  78              		.loc 1 32 0
  79              		.cfi_startproc
  80              		@ args = 0, pretend = 0, frame = 0
  81              		@ frame_needed = 0, uses_anonymous_args = 0
  82              		@ link register save eliminated.
ARM GAS  C:\Users\Schuyler\AppData\Local\Temp\cc9Z41Wc.s 			page 3


  33:can_manga.c   ****     return CURTIS_HEART_BEAT_CHECK;
  83              		.loc 1 33 0
  84 0000 014B     		ldr	r3, .L8
  85 0002 9878     		ldrb	r0, [r3, #2]	@ zero_extendqisi2
  34:can_manga.c   **** }
  86              		.loc 1 34 0
  87 0004 7047     		bx	lr
  88              	.L9:
  89 0006 00BF     		.align	2
  90              	.L8:
  91 0008 00000000 		.word	.LANCHOR0
  92              		.cfi_endproc
  93              	.LFE2:
  94              		.size	getCurtisHeartBeatCheck, .-getCurtisHeartBeatCheck
  95              		.section	.text.getAckRx,"ax",%progbits
  96              		.align	2
  97              		.global	getAckRx
  98              		.thumb
  99              		.thumb_func
 100              		.type	getAckRx, %function
 101              	getAckRx:
 102              	.LFB3:
  35:can_manga.c   **** 
  36:can_manga.c   **** uint8_t getAckRx()
  37:can_manga.c   **** {
 103              		.loc 1 37 0
 104              		.cfi_startproc
 105              		@ args = 0, pretend = 0, frame = 0
 106              		@ frame_needed = 0, uses_anonymous_args = 0
 107              		@ link register save eliminated.
  38:can_manga.c   ****     return ACK_RX;
 108              		.loc 1 38 0
 109 0000 014B     		ldr	r3, .L11
 110 0002 D878     		ldrb	r0, [r3, #3]	@ zero_extendqisi2
  39:can_manga.c   **** }
 111              		.loc 1 39 0
 112 0004 7047     		bx	lr
 113              	.L12:
 114 0006 00BF     		.align	2
 115              	.L11:
 116 0008 00000000 		.word	.LANCHOR0
 117              		.cfi_endproc
 118              	.LFE3:
 119              		.size	getAckRx, .-getAckRx
 120              		.section	.text.getErrorTolerance,"ax",%progbits
 121              		.align	2
 122              		.global	getErrorTolerance
 123              		.thumb
 124              		.thumb_func
 125              		.type	getErrorTolerance, %function
 126              	getErrorTolerance:
 127              	.LFB4:
  40:can_manga.c   **** 
  41:can_manga.c   **** uint8_t getErrorTolerance()
  42:can_manga.c   **** {
 128              		.loc 1 42 0
 129              		.cfi_startproc
ARM GAS  C:\Users\Schuyler\AppData\Local\Temp\cc9Z41Wc.s 			page 4


 130              		@ args = 0, pretend = 0, frame = 0
 131              		@ frame_needed = 0, uses_anonymous_args = 0
 132              		@ link register save eliminated.
  43:can_manga.c   ****     return ERROR_TOLERANCE;
 133              		.loc 1 43 0
 134 0000 014B     		ldr	r3, .L14
 135 0002 1879     		ldrb	r0, [r3, #4]	@ zero_extendqisi2
  44:can_manga.c   **** }
 136              		.loc 1 44 0
 137 0004 7047     		bx	lr
 138              	.L15:
 139 0006 00BF     		.align	2
 140              	.L14:
 141 0008 00000000 		.word	.LANCHOR0
 142              		.cfi_endproc
 143              	.LFE4:
 144              		.size	getErrorTolerance, .-getErrorTolerance
 145              		.section	.text.getABSMotorRPM,"ax",%progbits
 146              		.align	2
 147              		.global	getABSMotorRPM
 148              		.thumb
 149              		.thumb_func
 150              		.type	getABSMotorRPM, %function
 151              	getABSMotorRPM:
 152              	.LFB5:
  45:can_manga.c   **** 
  46:can_manga.c   **** uint8_t getABSMotorRPM()
  47:can_manga.c   **** {
 153              		.loc 1 47 0
 154              		.cfi_startproc
 155              		@ args = 0, pretend = 0, frame = 0
 156              		@ frame_needed = 0, uses_anonymous_args = 0
 157              		@ link register save eliminated.
  48:can_manga.c   ****     return ABS_MOTOR_RPM;
 158              		.loc 1 48 0
 159 0000 014B     		ldr	r3, .L17
 160 0002 5879     		ldrb	r0, [r3, #5]	@ zero_extendqisi2
  49:can_manga.c   **** }
 161              		.loc 1 49 0
 162 0004 7047     		bx	lr
 163              	.L18:
 164 0006 00BF     		.align	2
 165              	.L17:
 166 0008 00000000 		.word	.LANCHOR0
 167              		.cfi_endproc
 168              	.LFE5:
 169              		.size	getABSMotorRPM, .-getABSMotorRPM
 170              		.section	.text.getPedalLow,"ax",%progbits
 171              		.align	2
 172              		.global	getPedalLow
 173              		.thumb
 174              		.thumb_func
 175              		.type	getPedalLow, %function
 176              	getPedalLow:
 177              	.LFB6:
  50:can_manga.c   **** 
  51:can_manga.c   **** uint8_t getPedalLow()
ARM GAS  C:\Users\Schuyler\AppData\Local\Temp\cc9Z41Wc.s 			page 5


  52:can_manga.c   **** {
 178              		.loc 1 52 0
 179              		.cfi_startproc
 180              		@ args = 0, pretend = 0, frame = 0
 181              		@ frame_needed = 0, uses_anonymous_args = 0
 182              		@ link register save eliminated.
  53:can_manga.c   ****     return THROTTLE_LOW;
 183              		.loc 1 53 0
 184 0000 014B     		ldr	r3, .L20
 185 0002 9879     		ldrb	r0, [r3, #6]	@ zero_extendqisi2
  54:can_manga.c   **** }
 186              		.loc 1 54 0
 187 0004 7047     		bx	lr
 188              	.L21:
 189 0006 00BF     		.align	2
 190              	.L20:
 191 0008 00000000 		.word	.LANCHOR0
 192              		.cfi_endproc
 193              	.LFE6:
 194              		.size	getPedalLow, .-getPedalLow
 195              		.section	.text.getPedalHigh,"ax",%progbits
 196              		.align	2
 197              		.global	getPedalHigh
 198              		.thumb
 199              		.thumb_func
 200              		.type	getPedalHigh, %function
 201              	getPedalHigh:
 202              	.LFB7:
  55:can_manga.c   **** 
  56:can_manga.c   **** uint8_t getPedalHigh()
  57:can_manga.c   **** {
 203              		.loc 1 57 0
 204              		.cfi_startproc
 205              		@ args = 0, pretend = 0, frame = 0
 206              		@ frame_needed = 0, uses_anonymous_args = 0
 207              		@ link register save eliminated.
  58:can_manga.c   ****     return THROTTLE_HIGH;
 208              		.loc 1 58 0
 209 0000 014B     		ldr	r3, .L23
 210 0002 D879     		ldrb	r0, [r3, #7]	@ zero_extendqisi2
  59:can_manga.c   **** }
 211              		.loc 1 59 0
 212 0004 7047     		bx	lr
 213              	.L24:
 214 0006 00BF     		.align	2
 215              	.L23:
 216 0008 00000000 		.word	.LANCHOR0
 217              		.cfi_endproc
 218              	.LFE7:
 219              		.size	getPedalHigh, .-getPedalHigh
 220              		.section	.text.can_receive,"ax",%progbits
 221              		.align	2
 222              		.global	can_receive
 223              		.thumb
 224              		.thumb_func
 225              		.type	can_receive, %function
 226              	can_receive:
ARM GAS  C:\Users\Schuyler\AppData\Local\Temp\cc9Z41Wc.s 			page 6


 227              	.LFB8:
  60:can_manga.c   **** 
  61:can_manga.c   **** void can_receive(uint8_t *msg, int ID)
  62:can_manga.c   **** {
 228              		.loc 1 62 0
 229              		.cfi_startproc
 230              		@ args = 0, pretend = 0, frame = 8
 231              		@ frame_needed = 0, uses_anonymous_args = 0
 232              	.LVL0:
 233 0000 30B5     		push	{r4, r5, lr}
 234              		.cfi_def_cfa_offset 12
 235              		.cfi_offset 4, -12
 236              		.cfi_offset 5, -8
 237              		.cfi_offset 14, -4
 238 0002 83B0     		sub	sp, sp, #12
 239              		.cfi_def_cfa_offset 24
 240 0004 0446     		mov	r4, r0
 241 0006 0D46     		mov	r5, r1
  63:can_manga.c   ****     uint8 InterruptState = CyEnterCriticalSection();
 242              		.loc 1 63 0
 243 0008 FFF7FEFF 		bl	CyEnterCriticalSection
 244              	.LVL1:
  64:can_manga.c   ****     
  65:can_manga.c   ****     uint8_t data[8];
  66:can_manga.c   ****     int i = 0;
  67:can_manga.c   ****     for (i = 0; i < 8; i++)
 245              		.loc 1 67 0
 246 000c 0023     		movs	r3, #0
 247 000e 05E0     		b	.L26
 248              	.LVL2:
 249              	.L27:
  68:can_manga.c   ****         data[i] = msg[i];
 250              		.loc 1 68 0 discriminator 3
 251 0010 E15C     		ldrb	r1, [r4, r3]	@ zero_extendqisi2
 252 0012 02AA     		add	r2, sp, #8
 253 0014 1A44     		add	r2, r2, r3
 254 0016 02F8081C 		strb	r1, [r2, #-8]
  67:can_manga.c   ****         data[i] = msg[i];
 255              		.loc 1 67 0 discriminator 3
 256 001a 0133     		adds	r3, r3, #1
 257              	.LVL3:
 258              	.L26:
  67:can_manga.c   ****         data[i] = msg[i];
 259              		.loc 1 67 0 is_stmt 0 discriminator 1
 260 001c 072B     		cmp	r3, #7
 261 001e F7DD     		ble	.L27
  69:can_manga.c   ****         
  70:can_manga.c   ****     switch (ID) 
 262              		.loc 1 70 0 is_stmt 1
 263 0020 40F20123 		movw	r3, #513
 264              	.LVL4:
 265 0024 9D42     		cmp	r5, r3
 266 0026 24D0     		beq	.L29
 267 0028 05DC     		bgt	.L30
 268 002a A62D     		cmp	r5, #166
 269 002c 15D0     		beq	.L31
 270 002e B5F5007F 		cmp	r5, #512
ARM GAS  C:\Users\Schuyler\AppData\Local\Temp\cc9Z41Wc.s 			page 7


 271 0032 22D0     		beq	.L32
 272 0034 2BE0     		b	.L28
 273              	.L30:
 274 0036 40F26663 		movw	r3, #1638
 275 003a 9D42     		cmp	r5, r3
 276 003c 15D0     		beq	.L33
 277 003e 40F22673 		movw	r3, #1830
 278 0042 9D42     		cmp	r5, r3
 279 0044 0DD0     		beq	.L34
 280 0046 40F26653 		movw	r3, #1382
 281 004a 9D42     		cmp	r5, r3
 282 004c 1FD1     		bne	.L28
  71:can_manga.c   ****     {
  72:can_manga.c   ****         case 0x0566: // Curtis Status
  73:can_manga.c   ****             CAPACITOR_VOLT = msg[CAN_DATA_BYTE_1];
 283              		.loc 1 73 0
 284 004e E278     		ldrb	r2, [r4, #3]	@ zero_extendqisi2
 285 0050 114B     		ldr	r3, .L37
 286 0052 1A70     		strb	r2, [r3]
  74:can_manga.c   ****             ABS_MOTOR_RPM = msg[CAN_DATA_BYTE_5];
 287              		.loc 1 74 0
 288 0054 E279     		ldrb	r2, [r4, #7]	@ zero_extendqisi2
 289 0056 5A71     		strb	r2, [r3, #5]
  75:can_manga.c   ****             break;
 290              		.loc 1 75 0
 291 0058 19E0     		b	.L28
 292              	.L31:
  76:can_manga.c   ****         case 0xA6:
  77:can_manga.c   ****             CURTIS_FAULT_CHECK = 0x1;
 293              		.loc 1 77 0
 294 005a 0122     		movs	r2, #1
 295 005c 0E4B     		ldr	r3, .L37
 296 005e 5A70     		strb	r2, [r3, #1]
  78:can_manga.c   ****             break;
 297              		.loc 1 78 0
 298 0060 15E0     		b	.L28
 299              	.L34:
  79:can_manga.c   ****         case 0x726:
  80:can_manga.c   ****             CURTIS_HEART_BEAT_CHECK = 0x1;
 300              		.loc 1 80 0
 301 0062 0122     		movs	r2, #1
 302 0064 0C4B     		ldr	r3, .L37
 303 0066 9A70     		strb	r2, [r3, #2]
  81:can_manga.c   ****             break;
 304              		.loc 1 81 0
 305 0068 11E0     		b	.L28
 306              	.L33:
  82:can_manga.c   ****         case 0x0666:
  83:can_manga.c   ****             ACK_RX = msg[CAN_DATA_BYTE_1];
 307              		.loc 1 83 0
 308 006a E278     		ldrb	r2, [r4, #3]	@ zero_extendqisi2
 309 006c 0A4B     		ldr	r3, .L37
 310 006e DA70     		strb	r2, [r3, #3]
  84:can_manga.c   ****             break;
 311              		.loc 1 84 0
 312 0070 0DE0     		b	.L28
 313              	.L29:
ARM GAS  C:\Users\Schuyler\AppData\Local\Temp\cc9Z41Wc.s 			page 8


  85:can_manga.c   ****          case 0x0201:
  86:can_manga.c   ****             ERROR_TOLERANCE = msg[CAN_DATA_BYTE_1];
 314              		.loc 1 86 0
 315 0072 E278     		ldrb	r2, [r4, #3]	@ zero_extendqisi2
 316 0074 084B     		ldr	r3, .L37
 317 0076 1A71     		strb	r2, [r3, #4]
  87:can_manga.c   ****             break;
 318              		.loc 1 87 0
 319 0078 09E0     		b	.L28
 320              	.L32:
  88:can_manga.c   ****         case 0x0200: 
  89:can_manga.c   ****             pedalOK = 0x0;
 321              		.loc 1 89 0
 322 007a 0022     		movs	r2, #0
 323 007c 074B     		ldr	r3, .L37+4
 324 007e 1A60     		str	r2, [r3]
  90:can_manga.c   ****             THROTTLE_HIGH = data[CAN_DATA_BYTE_2];
 325              		.loc 1 90 0
 326 0080 9DF80220 		ldrb	r2, [sp, #2]	@ zero_extendqisi2
 327 0084 044B     		ldr	r3, .L37
 328 0086 DA71     		strb	r2, [r3, #7]
  91:can_manga.c   ****             THROTTLE_LOW = data[CAN_DATA_BYTE_3];
 329              		.loc 1 91 0
 330 0088 9DF80120 		ldrb	r2, [sp, #1]	@ zero_extendqisi2
 331 008c 9A71     		strb	r2, [r3, #6]
 332              	.L28:
  92:can_manga.c   ****             break;
  93:can_manga.c   ****     }
  94:can_manga.c   ****     
  95:can_manga.c   ****     CyExitCriticalSection(InterruptState);
 333              		.loc 1 95 0
 334 008e FFF7FEFF 		bl	CyExitCriticalSection
 335              	.LVL5:
  96:can_manga.c   **** }
 336              		.loc 1 96 0
 337 0092 03B0     		add	sp, sp, #12
 338              		.cfi_def_cfa_offset 12
 339              		@ sp needed
 340 0094 30BD     		pop	{r4, r5, pc}
 341              	.LVL6:
 342              	.L38:
 343 0096 00BF     		.align	2
 344              	.L37:
 345 0098 00000000 		.word	.LANCHOR0
 346 009c 00000000 		.word	pedalOK
 347              		.cfi_endproc
 348              	.LFE8:
 349              		.size	can_receive, .-can_receive
 350              		.section	.text.can_test_send,"ax",%progbits
 351              		.align	2
 352              		.global	can_test_send
 353              		.thumb
 354              		.thumb_func
 355              		.type	can_test_send, %function
 356              	can_test_send:
 357              	.LFB9:
  97:can_manga.c   **** 
ARM GAS  C:\Users\Schuyler\AppData\Local\Temp\cc9Z41Wc.s 			page 9


  98:can_manga.c   **** void can_test_send()
  99:can_manga.c   **** {
 358              		.loc 1 99 0
 359              		.cfi_startproc
 360              		@ args = 0, pretend = 0, frame = 16
 361              		@ frame_needed = 0, uses_anonymous_args = 0
 362 0000 00B5     		push	{lr}
 363              		.cfi_def_cfa_offset 4
 364              		.cfi_offset 14, -4
 365 0002 85B0     		sub	sp, sp, #20
 366              		.cfi_def_cfa_offset 24
 100:can_manga.c   ****     //CAN_1_DATA_BYTES_MSG msg;
 101:can_manga.c   ****     CAN_TX_MSG HeartB;
 102:can_manga.c   ****     
 103:can_manga.c   ****     HeartB.id = 0x300;
 367              		.loc 1 103 0
 368 0004 4FF44073 		mov	r3, #768
 369 0008 0193     		str	r3, [sp, #4]
 104:can_manga.c   ****     HeartB.rtr = 0;
 370              		.loc 1 104 0
 371 000a 0022     		movs	r2, #0
 372 000c 8DF80820 		strb	r2, [sp, #8]
 105:can_manga.c   ****     HeartB.ide = 0;
 373              		.loc 1 105 0
 374 0010 8DF80920 		strb	r2, [sp, #9]
 106:can_manga.c   ****     HeartB.dlc = 1;
 375              		.loc 1 106 0
 376 0014 0123     		movs	r3, #1
 377 0016 8DF80A30 		strb	r3, [sp, #10]
 107:can_manga.c   ****     
 108:can_manga.c   ****     HeartB.irq = 0;
 378              		.loc 1 108 0
 379 001a 8DF80B20 		strb	r2, [sp, #11]
 109:can_manga.c   ****     
 110:can_manga.c   ****     HeartB.msg->byte[0] = (uint8) 1;
 380              		.loc 1 110 0
 381 001e 039A     		ldr	r2, [sp, #12]
 382 0020 1370     		strb	r3, [r2]
 111:can_manga.c   ****     HeartB.msg->byte[1] = (uint8) 1;
 383              		.loc 1 111 0
 384 0022 039A     		ldr	r2, [sp, #12]
 385 0024 5370     		strb	r3, [r2, #1]
 112:can_manga.c   ****     HeartB.msg->byte[2] = (uint8) 1;
 386              		.loc 1 112 0
 387 0026 039A     		ldr	r2, [sp, #12]
 388 0028 9370     		strb	r3, [r2, #2]
 113:can_manga.c   ****     HeartB.msg->byte[3] = (uint8) 1;
 389              		.loc 1 113 0
 390 002a 039A     		ldr	r2, [sp, #12]
 391 002c D370     		strb	r3, [r2, #3]
 114:can_manga.c   ****     HeartB.msg->byte[4] = (uint8) 1;
 392              		.loc 1 114 0
 393 002e 039A     		ldr	r2, [sp, #12]
 394 0030 1371     		strb	r3, [r2, #4]
 115:can_manga.c   ****     HeartB.msg->byte[5] = (uint8) 1;
 395              		.loc 1 115 0
 396 0032 039A     		ldr	r2, [sp, #12]
ARM GAS  C:\Users\Schuyler\AppData\Local\Temp\cc9Z41Wc.s 			page 10


 397 0034 5371     		strb	r3, [r2, #5]
 116:can_manga.c   ****     HeartB.msg->byte[6] = (uint8) 1;
 398              		.loc 1 116 0
 399 0036 039A     		ldr	r2, [sp, #12]
 400 0038 9371     		strb	r3, [r2, #6]
 117:can_manga.c   ****     HeartB.msg->byte[7] = (uint8) 1;
 401              		.loc 1 117 0
 402 003a 039A     		ldr	r2, [sp, #12]
 403 003c D371     		strb	r3, [r2, #7]
 118:can_manga.c   ****     
 119:can_manga.c   ****     CAN_SendMsg(&HeartB);
 404              		.loc 1 119 0
 405 003e 01A8     		add	r0, sp, #4
 406 0040 FFF7FEFF 		bl	CAN_SendMsg
 407              	.LVL7:
 120:can_manga.c   **** }
 408              		.loc 1 120 0
 409 0044 05B0     		add	sp, sp, #20
 410              		.cfi_def_cfa_offset 4
 411              		@ sp needed
 412 0046 5DF804FB 		ldr	pc, [sp], #4
 413              		.cfi_endproc
 414              	.LFE9:
 415              		.size	can_test_send, .-can_test_send
 416 004a 00BF     		.section	.text.can_send,"ax",%progbits
 417              		.align	2
 418              		.global	can_send
 419              		.thumb
 420              		.thumb_func
 421              		.type	can_send, %function
 422              	can_send:
 423              	.LFB10:
 121:can_manga.c   **** 
 122:can_manga.c   **** void can_send(uint8_t data[8], uint32_t ID)
 123:can_manga.c   **** {
 424              		.loc 1 123 0
 425              		.cfi_startproc
 426              		@ args = 0, pretend = 0, frame = 24
 427              		@ frame_needed = 0, uses_anonymous_args = 0
 428              	.LVL8:
 429 0000 00B5     		push	{lr}
 430              		.cfi_def_cfa_offset 4
 431              		.cfi_offset 14, -4
 432 0002 87B0     		sub	sp, sp, #28
 433              		.cfi_def_cfa_offset 32
 124:can_manga.c   ****     uint8_t i;
 125:can_manga.c   **** 	CAN_TX_MSG message;
 126:can_manga.c   **** 	CAN_DATA_BYTES_MSG payload;
 127:can_manga.c   **** 	message.id = ID; 
 434              		.loc 1 127 0
 435 0004 0391     		str	r1, [sp, #12]
 128:can_manga.c   **** 	message.rtr = 0;
 436              		.loc 1 128 0
 437 0006 0023     		movs	r3, #0
 438 0008 8DF81030 		strb	r3, [sp, #16]
 129:can_manga.c   **** 	message.ide = 0;
 439              		.loc 1 129 0
ARM GAS  C:\Users\Schuyler\AppData\Local\Temp\cc9Z41Wc.s 			page 11


 440 000c 8DF81130 		strb	r3, [sp, #17]
 130:can_manga.c   **** 	message.dlc = 0x08;
 441              		.loc 1 130 0
 442 0010 0822     		movs	r2, #8
 443 0012 8DF81220 		strb	r2, [sp, #18]
 131:can_manga.c   **** 	message.irq = 0;
 444              		.loc 1 131 0
 445 0016 8DF81330 		strb	r3, [sp, #19]
 132:can_manga.c   **** 	message.msg = &payload;
 446              		.loc 1 132 0
 447 001a 01AA     		add	r2, sp, #4
 448 001c 0592     		str	r2, [sp, #20]
 449              	.LVL9:
 133:can_manga.c   **** 	for(i=0;i<8;i++)
 450              		.loc 1 133 0
 451 001e 06E0     		b	.L42
 452              	.LVL10:
 453              	.L43:
 134:can_manga.c   **** 		payload.byte[i] = data[i];
 454              		.loc 1 134 0 discriminator 3
 455 0020 C15C     		ldrb	r1, [r0, r3]	@ zero_extendqisi2
 456 0022 06AA     		add	r2, sp, #24
 457 0024 1A44     		add	r2, r2, r3
 458 0026 02F8141C 		strb	r1, [r2, #-20]
 133:can_manga.c   **** 	for(i=0;i<8;i++)
 459              		.loc 1 133 0 discriminator 3
 460 002a 0133     		adds	r3, r3, #1
 461              	.LVL11:
 462 002c DBB2     		uxtb	r3, r3
 463              	.LVL12:
 464              	.L42:
 133:can_manga.c   **** 	for(i=0;i<8;i++)
 465              		.loc 1 133 0 is_stmt 0 discriminator 1
 466 002e 072B     		cmp	r3, #7
 467 0030 F6D9     		bls	.L43
 135:can_manga.c   **** 	CAN_SendMsg(&message); 
 468              		.loc 1 135 0 is_stmt 1
 469 0032 03A8     		add	r0, sp, #12
 470              	.LVL13:
 471 0034 FFF7FEFF 		bl	CAN_SendMsg
 472              	.LVL14:
 136:can_manga.c   **** }
 473              		.loc 1 136 0
 474 0038 07B0     		add	sp, sp, #28
 475              		.cfi_def_cfa_offset 4
 476              		@ sp needed
 477 003a 5DF804FB 		ldr	pc, [sp], #4
 478              		.cfi_endproc
 479              	.LFE10:
 480              		.size	can_send, .-can_send
 481 003e 00BF     		.section	.text.can_send_status,"ax",%progbits
 482              		.align	2
 483              		.global	can_send_status
 484              		.thumb
 485              		.thumb_func
 486              		.type	can_send_status, %function
 487              	can_send_status:
ARM GAS  C:\Users\Schuyler\AppData\Local\Temp\cc9Z41Wc.s 			page 12


 488              	.LFB11:
 137:can_manga.c   **** 
 138:can_manga.c   **** void can_send_status(
 139:can_manga.c   ****     uint8_t state,
 140:can_manga.c   ****     uint8_t errorState)
 141:can_manga.c   **** {
 489              		.loc 1 141 0
 490              		.cfi_startproc
 491              		@ args = 0, pretend = 0, frame = 8
 492              		@ frame_needed = 0, uses_anonymous_args = 0
 493              	.LVL15:
 494 0000 00B5     		push	{lr}
 495              		.cfi_def_cfa_offset 4
 496              		.cfi_offset 14, -4
 497 0002 83B0     		sub	sp, sp, #12
 498              		.cfi_def_cfa_offset 16
 142:can_manga.c   ****     //max and min voltage means the voltage of single cell
 143:can_manga.c   ****         uint8_t data[8];
 144:can_manga.c   ****         
 145:can_manga.c   ****         data[0] = state;
 499              		.loc 1 145 0
 500 0004 8DF80000 		strb	r0, [sp]
 146:can_manga.c   ****         data[1] = errorState;
 501              		.loc 1 146 0
 502 0008 8DF80110 		strb	r1, [sp, #1]
 147:can_manga.c   ****         
 148:can_manga.c   ****         data[2] = 0;
 503              		.loc 1 148 0
 504 000c 0023     		movs	r3, #0
 505 000e 8DF80230 		strb	r3, [sp, #2]
 149:can_manga.c   ****         data[3] = 0;
 506              		.loc 1 149 0
 507 0012 8DF80330 		strb	r3, [sp, #3]
 150:can_manga.c   ****         
 151:can_manga.c   ****         data[4] = 0;
 508              		.loc 1 151 0
 509 0016 8DF80430 		strb	r3, [sp, #4]
 152:can_manga.c   ****         data[5] = 0;
 510              		.loc 1 152 0
 511 001a 8DF80530 		strb	r3, [sp, #5]
 153:can_manga.c   ****         data[6] = 0;
 512              		.loc 1 153 0
 513 001e 8DF80630 		strb	r3, [sp, #6]
 154:can_manga.c   ****         data[7] = 0;
 514              		.loc 1 154 0
 515 0022 8DF80730 		strb	r3, [sp, #7]
 155:can_manga.c   **** 
 156:can_manga.c   ****         can_send(data, 0x626);
 516              		.loc 1 156 0
 517 0026 40F22661 		movw	r1, #1574
 518              	.LVL16:
 519 002a 6846     		mov	r0, sp
 520              	.LVL17:
 521 002c FFF7FEFF 		bl	can_send
 522              	.LVL18:
 157:can_manga.c   **** 
 158:can_manga.c   ****         
ARM GAS  C:\Users\Schuyler\AppData\Local\Temp\cc9Z41Wc.s 			page 13


 159:can_manga.c   **** } // can_send_status()
 523              		.loc 1 159 0
 524 0030 03B0     		add	sp, sp, #12
 525              		.cfi_def_cfa_offset 4
 526              		@ sp needed
 527 0032 5DF804FB 		ldr	pc, [sp], #4
 528              		.cfi_endproc
 529              	.LFE11:
 530              		.size	can_send_status, .-can_send_status
 531 0036 00BF     		.section	.text.can_send_cmd,"ax",%progbits
 532              		.align	2
 533              		.global	can_send_cmd
 534              		.thumb
 535              		.thumb_func
 536              		.type	can_send_cmd, %function
 537              	can_send_cmd:
 538              	.LFB12:
 160:can_manga.c   **** 
 161:can_manga.c   **** void can_send_cmd(
 162:can_manga.c   ****     uint8_t SetInterlock,
 163:can_manga.c   ****     uint16_t VCL_Throttle_High,
 164:can_manga.c   ****     uint16_t VCL_Throttle_Low
 165:can_manga.c   **** )
 166:can_manga.c   **** {
 539              		.loc 1 166 0
 540              		.cfi_startproc
 541              		@ args = 0, pretend = 0, frame = 8
 542              		@ frame_needed = 0, uses_anonymous_args = 0
 543              	.LVL19:
 544 0000 00B5     		push	{lr}
 545              		.cfi_def_cfa_offset 4
 546              		.cfi_offset 14, -4
 547 0002 83B0     		sub	sp, sp, #12
 548              		.cfi_def_cfa_offset 16
 167:can_manga.c   ****     //max and min voltage means the voltage of single cell
 168:can_manga.c   ****         
 169:can_manga.c   ****         uint8_t data[8];
 170:can_manga.c   ****         
 171:can_manga.c   ****         data[0] = SetInterlock;
 549              		.loc 1 171 0
 550 0004 8DF80000 		strb	r0, [sp]
 172:can_manga.c   ****         
 173:can_manga.c   ****         data[1] = VCL_Throttle_High;
 551              		.loc 1 173 0
 552 0008 8DF80110 		strb	r1, [sp, #1]
 174:can_manga.c   ****         data[2] = VCL_Throttle_Low;
 553              		.loc 1 174 0
 554 000c 8DF80220 		strb	r2, [sp, #2]
 175:can_manga.c   ****         
 176:can_manga.c   ****         data[3] = 0;
 555              		.loc 1 176 0
 556 0010 0023     		movs	r3, #0
 557 0012 8DF80330 		strb	r3, [sp, #3]
 177:can_manga.c   ****         data[4] = 0;
 558              		.loc 1 177 0
 559 0016 8DF80430 		strb	r3, [sp, #4]
 178:can_manga.c   ****         
ARM GAS  C:\Users\Schuyler\AppData\Local\Temp\cc9Z41Wc.s 			page 14


 179:can_manga.c   ****         data[5] = 0;
 560              		.loc 1 179 0
 561 001a 8DF80530 		strb	r3, [sp, #5]
 180:can_manga.c   ****         data[6] = 0;
 562              		.loc 1 180 0
 563 001e 8DF80630 		strb	r3, [sp, #6]
 181:can_manga.c   ****         data[7] = 0;
 564              		.loc 1 181 0
 565 0022 8DF80730 		strb	r3, [sp, #7]
 182:can_manga.c   **** 
 183:can_manga.c   ****         can_send(data, 0x766);
 566              		.loc 1 183 0
 567 0026 40F26671 		movw	r1, #1894
 568              	.LVL20:
 569 002a 6846     		mov	r0, sp
 570              	.LVL21:
 571 002c FFF7FEFF 		bl	can_send
 572              	.LVL22:
 184:can_manga.c   ****         CyDelay(1);
 573              		.loc 1 184 0
 574 0030 0120     		movs	r0, #1
 575 0032 FFF7FEFF 		bl	CyDelay
 576              	.LVL23:
 185:can_manga.c   **** 
 186:can_manga.c   **** } // can_send_cmd()
 577              		.loc 1 186 0
 578 0036 03B0     		add	sp, sp, #12
 579              		.cfi_def_cfa_offset 4
 580              		@ sp needed
 581 0038 5DF804FB 		ldr	pc, [sp], #4
 582              		.cfi_endproc
 583              	.LFE12:
 584              		.size	can_send_cmd, .-can_send_cmd
 585              		.global	THROTTLE_LOW
 586              		.global	THROTTLE_HIGH
 587              		.global	ABS_MOTOR_RPM
 588              		.global	ERROR_TOLERANCE
 589              		.global	ACK_RX
 590              		.global	CURTIS_HEART_BEAT_CHECK
 591              		.global	CURTIS_FAULT_CHECK
 592              		.global	CAPACITOR_VOLT
 593              		.bss
 594              		.set	.LANCHOR0,. + 0
 595              		.type	CAPACITOR_VOLT, %object
 596              		.size	CAPACITOR_VOLT, 1
 597              	CAPACITOR_VOLT:
 598 0000 00       		.space	1
 599              		.type	CURTIS_FAULT_CHECK, %object
 600              		.size	CURTIS_FAULT_CHECK, 1
 601              	CURTIS_FAULT_CHECK:
 602 0001 00       		.space	1
 603              		.type	CURTIS_HEART_BEAT_CHECK, %object
 604              		.size	CURTIS_HEART_BEAT_CHECK, 1
 605              	CURTIS_HEART_BEAT_CHECK:
 606 0002 00       		.space	1
 607              		.type	ACK_RX, %object
 608              		.size	ACK_RX, 1
ARM GAS  C:\Users\Schuyler\AppData\Local\Temp\cc9Z41Wc.s 			page 15


 609              	ACK_RX:
 610 0003 00       		.space	1
 611              		.type	ERROR_TOLERANCE, %object
 612              		.size	ERROR_TOLERANCE, 1
 613              	ERROR_TOLERANCE:
 614 0004 00       		.space	1
 615              		.type	ABS_MOTOR_RPM, %object
 616              		.size	ABS_MOTOR_RPM, 1
 617              	ABS_MOTOR_RPM:
 618 0005 00       		.space	1
 619              		.type	THROTTLE_LOW, %object
 620              		.size	THROTTLE_LOW, 1
 621              	THROTTLE_LOW:
 622 0006 00       		.space	1
 623              		.type	THROTTLE_HIGH, %object
 624              		.size	THROTTLE_HIGH, 1
 625              	THROTTLE_HIGH:
 626 0007 00       		.space	1
 627              		.text
 628              	.Letext0:
 629              		.file 2 "c:\\program files (x86)\\cypress\\psoc creator\\4.1\\psoc creator\\import\\gnu\\arm\\5.4.
 630              		.file 3 "c:\\program files (x86)\\cypress\\psoc creator\\4.1\\psoc creator\\import\\gnu\\arm\\5.4.
 631              		.file 4 "Generated_Source\\PSoC5/cytypes.h"
 632              		.file 5 "Generated_Source\\PSoC5/CAN.h"
 633              		.file 6 "Generated_Source\\PSoC5/CyLib.h"