ARM GAS  C:\Users\Schuyler\AppData\Local\Temp\ccoGzKg4.s 			page 1


   1              		.syntax unified
   2              		.cpu cortex-m3
   3              		.fpu softvfp
   4              		.eabi_attribute 20, 1
   5              		.eabi_attribute 21, 1
   6              		.eabi_attribute 23, 3
   7              		.eabi_attribute 24, 1
   8              		.eabi_attribute 25, 1
   9              		.eabi_attribute 26, 1
  10              		.eabi_attribute 30, 1
  11              		.eabi_attribute 34, 1
  12              		.eabi_attribute 18, 4
  13              		.thumb
  14              		.syntax unified
  15              		.file	"main.c"
  16              		.text
  17              	.Ltext0:
  18              		.cfi_sections	.debug_frame
  19              		.section	.text.nodeCheckStart,"ax",%progbits
  20              		.align	2
  21              		.global	nodeCheckStart
  22              		.thumb
  23              		.thumb_func
  24              		.type	nodeCheckStart, %function
  25              	nodeCheckStart:
  26              	.LFB64:
  27              		.file 1 "main.c"
   1:main.c        **** #include <project.h>
   2:main.c        **** #include <stdio.h>
   3:main.c        **** #include "can_manga.h"
   4:main.c        **** 
   5:main.c        **** #define PWM_PULSE_WIDTH_STEP        (10u)
   6:main.c        **** #define SWITCH_PRESSED              (0u)
   7:main.c        **** #define PWM_MESSAGE_ID              (0x1AAu)
   8:main.c        **** #define PWM_MESSAGE_IDE             (0u)    /* Standard message */
   9:main.c        **** #define PWM_MESSAGE_IRQ             (0u)    /* No transmit IRQ */
  10:main.c        **** #define PWM_MESSAGE_RTR             (0u)    /* No RTR */
  11:main.c        **** #define CAN_RX_MAILBOX_0_SHIFT      (1u)
  12:main.c        **** #define CAN_RX_MAILBOX_1_SHIFT      (2u)
  13:main.c        **** #define DATA_SIZE                   (6u)
  14:main.c        **** #define ONE_BYTE_OFFSET             (8u)
  15:main.c        **** 
  16:main.c        **** #define PEDAL_TIMEOUT 100 // Timeout after (PEDAL_TIMEOUT * 10)ms
  17:main.c        **** 
  18:main.c        **** /* Function prototypes */
  19:main.c        **** //CY_ISR_PROTO(ISR_CAN);
  20:main.c        **** 
  21:main.c        **** /* Global variables used to store configuration and data for BASIC CAN mailbox */
  22:main.c        **** //CAN_DATA_BYTES_MSG dataPWM;
  23:main.c        **** //CAN_TX_MSG messagePWM;
  24:main.c        **** 
  25:main.c        **** /* Global variable used to store PWM pulse width value */
  26:main.c        **** //uint8 pulseWidthValue = 0u;
  27:main.c        **** 
  28:main.c        **** /* Global variable used to store receive message mailbox number */
  29:main.c        **** //volatile uint8 receiveMailboxNumber = 0xFFu;
  30:main.c        **** 
ARM GAS  C:\Users\Schuyler\AppData\Local\Temp\ccoGzKg4.s 			page 2


  31:main.c        **** void nodeCheckStart()
  32:main.c        **** {
  28              		.loc 1 32 0
  29              		.cfi_startproc
  30              		@ args = 0, pretend = 0, frame = 0
  31              		@ frame_needed = 0, uses_anonymous_args = 0
  32 0000 08B5     		push	{r3, lr}
  33              		.cfi_def_cfa_offset 8
  34              		.cfi_offset 3, -8
  35              		.cfi_offset 14, -4
  33:main.c        ****     Node_Timer_Start();
  36              		.loc 1 33 0
  37 0002 FFF7FEFF 		bl	Node_Timer_Start
  38              	.LVL0:
  34:main.c        ****     isr_nodeok_Start();
  39              		.loc 1 34 0
  40 0006 FFF7FEFF 		bl	isr_nodeok_Start
  41              	.LVL1:
  42 000a 08BD     		pop	{r3, pc}
  43              		.cfi_endproc
  44              	.LFE64:
  45              		.size	nodeCheckStart, .-nodeCheckStart
  46              		.section	.text.main,"ax",%progbits
  47              		.align	2
  48              		.global	main
  49              		.thumb
  50              		.thumb_func
  51              		.type	main, %function
  52              	main:
  53              	.LFB65:
  35:main.c        **** }
  36:main.c        **** 
  37:main.c        **** typedef enum 
  38:main.c        **** {
  39:main.c        **** 	Startup,
  40:main.c        **** 	LV,
  41:main.c        **** 	Precharging,
  42:main.c        **** 	HV_Enabled,
  43:main.c        **** 	Drive,
  44:main.c        **** 	Fault
  45:main.c        ****     
  46:main.c        **** }Dash_State;
  47:main.c        **** 
  48:main.c        **** typedef enum 
  49:main.c        **** {
  50:main.c        **** 	OK,
  51:main.c        **** 	fromLV,
  52:main.c        **** 	fromPrecharging,
  53:main.c        **** 	fromHV_Enabled,
  54:main.c        **** 	fromDrive,
  55:main.c        ****     fromFault,
  56:main.c        ****     nodeFailure
  57:main.c        ****     
  58:main.c        **** }Error_State;
  59:main.c        **** 
  60:main.c        **** /* Switch state defines -- Active High*/ 
  61:main.c        **** #define SWITCH_ON         (1u)
ARM GAS  C:\Users\Schuyler\AppData\Local\Temp\ccoGzKg4.s 			page 3


  62:main.c        **** #define SWITCH_OFF        (0u)
  63:main.c        **** /* Switch debounce delay in milliseconds */
  64:main.c        **** #define SWITCH_DEBOUNCE_UNIT   (1u)
  65:main.c        **** /* Number of debounce units to count delay, before consider that switch is pressed */
  66:main.c        **** #define SWITCH_DEBOUNCE_PERIOD (10u)
  67:main.c        **** /* Function prototypes */
  68:main.c        **** static uint32 ReadSwSwitch(void);
  69:main.c        **** 
  70:main.c        **** /* Global variable used to store switch state */
  71:main.c        **** uint8 HVSwitch = SWITCH_OFF;
  72:main.c        **** uint8 DriveSwitch = SWITCH_OFF;
  73:main.c        **** //volatile Dash_State state = Startup;
  74:main.c        **** 
  75:main.c        **** // Global variables used to track status of nodes
  76:main.c        **** volatile uint32_t pedalOK = 0; // for pedal node
  77:main.c        **** 
  78:main.c        **** //CY_ISR(isr_can_handler){
  79:main.c        ****     
  80:main.c        **** //    can_send_status(state);
  81:main.c        ****     
  82:main.c        **** //}
  83:main.c        **** 
  84:main.c        **** /*******************************************************************************
  85:main.c        **** * Function Name: main
  86:main.c        **** ********************************************************************************
  87:main.c        **** *
  88:main.c        **** * Summary:
  89:main.c        **** *  main() performs the following functions:
  90:main.c        **** *  1: Initializes a structure for the Basic CAN mailbox to send messages.
  91:main.c        **** *  2: Starts the CAN and LCD components.
  92:main.c        **** *  3: When received Message 1, sends the PWM pulse width and displays
  93:main.c        **** *     received switch status and value of PWM pulse width on an LCD; 
  94:main.c        **** *     When received Message 2, display received ADC data on an LCD.
  95:main.c        **** *
  96:main.c        **** * Parameters:
  97:main.c        **** *  None.
  98:main.c        **** *
  99:main.c        **** * Return:
 100:main.c        **** *  None.
 101:main.c        **** *
 102:main.c        **** *******************************************************************************/
 103:main.c        **** 
 104:main.c        **** int main()
 105:main.c        **** {   
  54              		.loc 1 105 0
  55              		.cfi_startproc
  56              		@ args = 0, pretend = 0, frame = 8
  57              		@ frame_needed = 0, uses_anonymous_args = 0
  58 0000 2DE9F047 		push	{r4, r5, r6, r7, r8, r9, r10, lr}
  59              		.cfi_def_cfa_offset 32
  60              		.cfi_offset 4, -32
  61              		.cfi_offset 5, -28
  62              		.cfi_offset 6, -24
  63              		.cfi_offset 7, -20
  64              		.cfi_offset 8, -16
  65              		.cfi_offset 9, -12
  66              		.cfi_offset 10, -8
ARM GAS  C:\Users\Schuyler\AppData\Local\Temp\ccoGzKg4.s 			page 4


  67              		.cfi_offset 14, -4
  68 0004 82B0     		sub	sp, sp, #8
  69              		.cfi_def_cfa_offset 40
  70              	.LVL2:
 106:main.c        ****     Dash_State state = Startup;
 107:main.c        ****     Error_State error_state = OK;
 108:main.c        ****     
 109:main.c        ****     //Tach Meter Stuff
 110:main.c        ****     uint8_t value=0; // replace the value with 
 111:main.c        ****     int8_t direction=1;
 112:main.c        ****     WaveDAC8_1_Start();
  71              		.loc 1 112 0
  72 0006 FFF7FEFF 		bl	WaveDAC8_1_Start
  73              	.LVL3:
 113:main.c        ****     
 114:main.c        ****     //precharging time counter
 115:main.c        ****     volatile uint32_t PrechargingTimeCount = 0;
  74              		.loc 1 115 0
  75 000a 0024     		movs	r4, #0
  76 000c 0194     		str	r4, [sp, #4]
  77              	.LVL4:
 116:main.c        ****     uint32_t DriveTimeCount = 0;
 117:main.c        ****     
 118:main.c        ****     //CyDelay(5000);
 119:main.c        ****     //Initialize CAN
 120:main.c        ****     //CAN_GlobalIntEnable();
 121:main.c        ****     //CAN_Init();
 122:main.c        ****     //CAN_Start();
 123:main.c        ****     
 124:main.c        ****     /* Set CAN interrupt handler to local routine */
 125:main.c        ****     //CyIntSetVector(CAN_ISR_NUMBER, ISR_CAN);   
 126:main.c        ****     
 127:main.c        ****     //CAN_Timer_Start();
 128:main.c        ****     //isr_can_StartEx(isr_can_handler);    
 129:main.c        **** 
 130:main.c        ****     CyGlobalIntEnable;
  78              		.loc 1 130 0
  79              		.syntax unified
  80              	@ 130 "main.c" 1
  81 000e 62B6     		CPSIE   i
  82              	@ 0 "" 2
 131:main.c        ****     
 132:main.c        ****     //while(1){
 133:main.c        ****     //}
 134:main.c        ****     
 135:main.c        ****     //char8 txData[DATA_SIZE];
 136:main.c        ****     //uint16 adcData;
 137:main.c        ****     
 138:main.c        ****     /* BASIC CAN mailbox configuration */
 139:main.c        ****     //messagePWM.dlc = CAN_TX_DLC_MAX_VALUE;
 140:main.c        ****     //messagePWM.id  = PWM_MESSAGE_ID;
 141:main.c        ****     //messagePWM.ide = PWM_MESSAGE_IDE;
 142:main.c        ****     //messagePWM.irq = PWM_MESSAGE_IRQ;
 143:main.c        ****     //messagePWM.msg = &dataPWM;
 144:main.c        ****     //messagePWM.rtr = PWM_MESSAGE_RTR;
 145:main.c        **** 
 146:main.c        ****     ////LCD_Start();
ARM GAS  C:\Users\Schuyler\AppData\Local\Temp\ccoGzKg4.s 			page 5


 147:main.c        **** 
 148:main.c        ****     
 149:main.c        ****     /* Display value of ADC output on LCD */
 150:main.c        ****     //LCD_Position(0u, 0u);
 151:main.c        ****     //LCD_PrintString("ADC");
 152:main.c        **** 
 153:main.c        ****     /* Display state of switch on LCD */
 154:main.c        ****     //LCD_Position(1u, 0u);
 155:main.c        ****     //LCD_PrintString("SW");
 156:main.c        **** 
 157:main.c        ****     /* Display state of PWM pulse width on LCD */
 158:main.c        ****     //LCD_Position(0u, 10u);
 159:main.c        ****     //LCD_PrintString("PWM");
 160:main.c        **** 
 161:main.c        ****     //test_inject(data_queue, &data_tail);
 162:main.c        ****     
 163:main.c        ****     nodeCheckStart();
  83              		.loc 1 163 0
  84              		.thumb
  85              		.syntax unified
  86 0010 FFF7FEFF 		bl	nodeCheckStart
  87              	.LVL5:
 116:main.c        ****     uint32_t DriveTimeCount = 0;
  88              		.loc 1 116 0
  89 0014 2646     		mov	r6, r4
 107:main.c        ****     
  90              		.loc 1 107 0
  91 0016 2546     		mov	r5, r4
  92 0018 21E0     		b	.L4
  93              	.LVL6:
  94              	.L23:
  95              	.LBB2:
 164:main.c        ****     
 165:main.c        ****     for(;;)
 166:main.c        ****     {
 167:main.c        ****         //LED_Write(~LED_ReadDataReg());    
 168:main.c        ****         
 169:main.c        ****         //can_send_status(state);
 170:main.c        ****         //CyDelay(2000);
 171:main.c        ****         
 172:main.c        ****         RGB3_2_Write(1);
 173:main.c        ****         RGB2_2_Write(1);
 174:main.c        ****         RGB1_2_Write(1);
 175:main.c        ****         
 176:main.c        ****         // Check if all nodes are OK
 177:main.c        ****         if (pedalOK > PEDAL_TIMEOUT)
 178:main.c        ****         {
 179:main.c        ****             can_send_cmd(1,0,0); // setInterlock. 
 180:main.c        ****             state = Fault;
 181:main.c        ****             error_state = nodeFailure;
 182:main.c        ****         }
 183:main.c        ****         
 184:main.c        ****         switch(state)
 185:main.c        ****         {    
 186:main.c        ****             //CyDelay(1000);
 187:main.c        ****             case Startup:
 188:main.c        ****   
ARM GAS  C:\Users\Schuyler\AppData\Local\Temp\ccoGzKg4.s 			page 6


 189:main.c        ****                 //CyDelay(5000);
 190:main.c        ****                 //Initialize CAN
 191:main.c        ****                 CAN_GlobalIntEnable();
 192:main.c        ****                 CAN_Init();
 193:main.c        ****                 CAN_Start();
 194:main.c        ****                 CyDelay(1000);
 195:main.c        ****                 //nodeCheckStart(); EDIT UNCOMMENT
 196:main.c        ****                 
 197:main.c        ****                 //CyDelay(5000);
 198:main.c        ****                 can_send_status(state, error_state);
 199:main.c        **** 
 200:main.c        ****                 //CyGlobalIntEnable;
 201:main.c        ****                 //CAN_GlobalIntDisable();
 202:main.c        ****                 //CyGlobalIntDisable;
 203:main.c        ****                 LCD_Start();
 204:main.c        ****                 
 205:main.c        ****                 //UI
 206:main.c        ****                 
 207:main.c        ****                 Buzzer_Write(1);
 208:main.c        ****                 WaveDAC8_1_SetValue(253);
 209:main.c        ****                 CyDelay(50);
 210:main.c        ****                 
 211:main.c        ****                 
 212:main.c        ****                 /*
 213:main.c        ****                 //Active Low
 214:main.c        ****                 RGB3_1_Write(1);
 215:main.c        ****                 RGB2_1_Write(1);
 216:main.c        ****                 RGB1_1_Write(1);
 217:main.c        ****                 
 218:main.c        ****                 RGB3_2_Write(1);
 219:main.c        ****                 RGB2_2_Write(1);
 220:main.c        ****                 RGB1_2_Write(1);
 221:main.c        ****                 
 222:main.c        ****                 //RGB Testing
 223:main.c        ****                 RGB3_1_Write(0);
 224:main.c        ****                 CyDelay(2000);
 225:main.c        ****                 RGB3_1_Write(1);
 226:main.c        ****                 RGB2_1_Write(0);
 227:main.c        ****                 CyDelay(2000);
 228:main.c        ****                 RGB2_1_Write(1);
 229:main.c        ****                 RGB1_1_Write(0);
 230:main.c        ****                 CyDelay(2000);
 231:main.c        ****                 RGB1_1_Write(1);
 232:main.c        ****                 RGB3_2_Write(0);
 233:main.c        ****                 CyDelay(2000);
 234:main.c        ****                 RGB3_2_Write(1);
 235:main.c        ****                 RGB2_2_Write(0);
 236:main.c        ****                 CyDelay(2000);
 237:main.c        ****                 RGB2_2_Write(1);
 238:main.c        ****                 RGB1_2_Write(0);
 239:main.c        ****                 CyDelay(2000);
 240:main.c        ****                 RGB1_2_Write(1);
 241:main.c        ****                 */
 242:main.c        ****                 
 243:main.c        ****                 
 244:main.c        ****                 Buzzer_Write(0);
 245:main.c        ****                 WaveDAC8_1_SetValue(250);
ARM GAS  C:\Users\Schuyler\AppData\Local\Temp\ccoGzKg4.s 			page 7


 246:main.c        ****                 //CyDelay(5000);
 247:main.c        ****                 WaveDAC8_1_SetValue(0);
 248:main.c        ****                 
 249:main.c        ****                 state = LV;
 250:main.c        ****                 
 251:main.c        ****             break;
 252:main.c        ****                 
 253:main.c        ****             case LV:
 254:main.c        ****                 
 255:main.c        ****                 can_send_cmd(0,0,0);
 256:main.c        ****                 CAN_GlobalIntEnable();
 257:main.c        ****                 CAN_Init();
 258:main.c        ****                 CAN_Start();
 259:main.c        ****                 //nodeCheckStart();
 260:main.c        ****           
 261:main.c        ****                 can_send_status(state, error_state);
 262:main.c        **** 
 263:main.c        ****                 /*
 264:main.c        ****                 LCD_Position(1u, 10u);
 265:main.c        ****                 LCD_PrintInt16(data_queue[0].id);
 266:main.c        ****                 
 267:main.c        ****                 uint16_t temp = can_read(data_queue, data_head, data_tail, 0x07FF, 0);
 268:main.c        ****                 
 269:main.c        ****                 LCD_Position(0u, 0u);
 270:main.c        ****                 LCD_PrintInt16(temp);
 271:main.c        ****                 
 272:main.c        ****                 temp = can_read(data_queue, data_head, data_tail, 0x07FF, 1);
 273:main.c        ****                 LCD_Position(1u, 0u);
 274:main.c        ****                 LCD_PrintInt8(temp);
 275:main.c        ****                 
 276:main.c        ****                 temp = can_read(data_queue, data_head, data_tail, 0x07FF, 2);
 277:main.c        ****                 LCD_Position(0u, 10u);
 278:main.c        ****                 LCD_PrintInt8(temp);
 279:main.c        ****                 */
 280:main.c        ****                 
 281:main.c        ****                 
 282:main.c        ****                 //UI
 283:main.c        ****                 
 284:main.c        ****                 Buzzer_Write(0);
 285:main.c        ****                 
 286:main.c        ****                 
 287:main.c        ****                 //
 288:main.c        ****                 // RGB code goes here
 289:main.c        ****                 // pick a color
 290:main.c        ****                 // all on. 
 291:main.c        ****                 
 292:main.c        ****                 RGB3_1_Write(0);
 293:main.c        ****                 RGB2_1_Write(1);
 294:main.c        ****                 RGB1_1_Write(0);
 295:main.c        ****                 
 296:main.c        ****                 RGB3_2_Write(1);
 297:main.c        ****                 RGB2_2_Write(1);
 298:main.c        ****                 RGB1_2_Write(1);
 299:main.c        ****                 
 300:main.c        ****                 if (Drive_Read())
 301:main.c        ****                 {
 302:main.c        ****                     state = Fault;
ARM GAS  C:\Users\Schuyler\AppData\Local\Temp\ccoGzKg4.s 			page 8


 303:main.c        ****                     error_state = fromLV;
  96              		.loc 1 303 0
  97 001a 0125     		movs	r5, #1
  98              	.LVL7:
 302:main.c        ****                     error_state = fromLV;
  99              		.loc 1 302 0
 100 001c 0524     		movs	r4, #5
 101              	.LVL8:
 102 001e 1EE0     		b	.L4
 103              	.LVL9:
 104              	.L24:
 304:main.c        ****                     break;
 305:main.c        ****                 }
 306:main.c        ****             
 307:main.c        ****                 if (HV_Read())    /* Switch state changed status */
 308:main.c        ****                 {
 309:main.c        ****                     state = Precharging;
 105              		.loc 1 309 0
 106 0020 0224     		movs	r4, #2
 107              	.LVL10:
 108 0022 1CE0     		b	.L4
 109              	.LVL11:
 110              	.L25:
 111              	.LBB3:
 310:main.c        ****                     break;
 311:main.c        ****                 } 
 312:main.c        ****                 
 313:main.c        ****             break;
 314:main.c        ****                 
 315:main.c        ****             case Precharging:
 316:main.c        ****                 CAN_GlobalIntEnable();
 317:main.c        ****                 CAN_Init();
 318:main.c        ****                 CAN_Start();
 319:main.c        ****                 //nodeCheckStart();
 320:main.c        ****                 
 321:main.c        ****                 can_send_status(state, error_state);
 322:main.c        ****                 
 323:main.c        ****                 RGB3_1_Write(0);
 324:main.c        ****                 RGB2_1_Write(0);
 325:main.c        ****                 RGB1_1_Write(1);
 326:main.c        ****                 
 327:main.c        ****                 RGB3_2_Write(1);
 328:main.c        ****                 RGB2_2_Write(1);
 329:main.c        ****                 RGB1_2_Write(1);
 330:main.c        ****                 
 331:main.c        ****                 Buzzer_Write(0);
 332:main.c        ****                 
 333:main.c        ****                 
 334:main.c        ****                 PrechargingTimeCount = 0;
 335:main.c        ****                 
 336:main.c        ****                 while(1)
 337:main.c        ****                 {
 338:main.c        ****                     can_send_cmd(1,0,0); // setInterlock
 339:main.c        ****                 
 340:main.c        ****                     // UNUSED //uint8_t MainState = can_read(data_queue, data_head, data_tail, 0x05
 341:main.c        ****                     uint8_t CapacitorVolt = getCapacitorVoltage(); //can_read(data_queue, data_head
 342:main.c        ****                     // UNUSED //uint8_t NomialVolt =  can_read(data_queue, data_head, data_tail, 0x
ARM GAS  C:\Users\Schuyler\AppData\Local\Temp\ccoGzKg4.s 			page 9


 343:main.c        ****                 
 344:main.c        ****                     if(CapacitorVolt >= 0x16) // need to be tuned
 345:main.c        ****                     {
 346:main.c        ****                         state = HV_Enabled;
 112              		.loc 1 346 0
 113 0024 0324     		movs	r4, #3
 114              	.LVL12:
 115 0026 1AE0     		b	.L4
 116              	.LVL13:
 117              	.L26:
 347:main.c        ****                         break;
 348:main.c        ****                     }
 349:main.c        ****                 
 350:main.c        ****                 
 351:main.c        ****                     PrechargingTimeCount++;
 352:main.c        ****                 
 353:main.c        ****                     if (PrechargingTimeCount == 10)
 354:main.c        ****                     {
 355:main.c        ****                         state = Fault;
 356:main.c        ****                         error_state = fromPrecharging;
 118              		.loc 1 356 0
 119 0028 0225     		movs	r5, #2
 120              	.LVL14:
 355:main.c        ****                         error_state = fromPrecharging;
 121              		.loc 1 355 0
 122 002a 0524     		movs	r4, #5
 123              	.LVL15:
 124 002c 17E0     		b	.L4
 125              	.LVL16:
 126              	.L27:
 127              	.LBE3:
 357:main.c        ****                         break;
 358:main.c        ****                     }
 359:main.c        ****                 
 360:main.c        ****                     CyDelay(1000);
 361:main.c        ****                 }    
 362:main.c        ****                 
 363:main.c        ****             break;
 364:main.c        **** 	        
 365:main.c        ****             case HV_Enabled:
 366:main.c        **** 
 367:main.c        ****                 CAN_GlobalIntEnable();
 368:main.c        ****                 CAN_Init();
 369:main.c        ****                 CAN_Start();
 370:main.c        ****                 
 371:main.c        ****                 //nodeCheckStart();
 372:main.c        ****                 
 373:main.c        ****                 can_send_status(state, error_state);
 374:main.c        ****                 
 375:main.c        ****                 //
 376:main.c        ****                 // RGB code goes here
 377:main.c        ****                 // Blue
 378:main.c        ****                 RGB3_1_Write(1);
 379:main.c        ****                 RGB2_1_Write(1);
 380:main.c        ****                 RGB1_1_Write(0);
 381:main.c        ****                 
 382:main.c        ****                 RGB3_2_Write(1);
ARM GAS  C:\Users\Schuyler\AppData\Local\Temp\ccoGzKg4.s 			page 10


 383:main.c        ****                 RGB2_2_Write(1);
 384:main.c        ****                 RGB1_2_Write(1);
 385:main.c        ****                 //CyDelay(5000); ///for debug
 386:main.c        ****                 
 387:main.c        ****                 Buzzer_Write(0);
 388:main.c        ****                 
 389:main.c        ****                 if (Drive_Read())
 390:main.c        ****                 {
 391:main.c        ****                     CyDelay(1000); // wait for the brake msg to be sent
 392:main.c        ****                     if(getErrorTolerance() == 1) // 100 for error tolerance /// needs to be getErro
 393:main.c        ****                     {
 394:main.c        ****                         Buzzer_Write(1);
 395:main.c        ****                         CyDelay(1000);
 396:main.c        ****                         Buzzer_Write(0);
 397:main.c        ****                         state = Drive;
 398:main.c        ****                         break;
 399:main.c        ****                     }
 400:main.c        ****                     else
 401:main.c        ****                     {
 402:main.c        ****                         state = Fault;
 403:main.c        ****                         error_state = fromHV_Enabled;
 128              		.loc 1 403 0
 129 002e 0325     		movs	r5, #3
 130              	.LVL17:
 402:main.c        ****                         error_state = fromHV_Enabled;
 131              		.loc 1 402 0
 132 0030 0524     		movs	r4, #5
 133              	.LVL18:
 134 0032 14E0     		b	.L4
 135              	.LVL19:
 136              	.L28:
 404:main.c        ****                         break;
 405:main.c        ****                     }                     
 406:main.c        ****                 }
 407:main.c        ****                 
 408:main.c        ****                 // if capacitor voltage is undervoltage, change the threshold 0x16
 409:main.c        ****                 if(!HV_Read() | getCapacitorVoltage() < 0x16)
 410:main.c        ****                 {
 411:main.c        ****                     state = LV;
 412:main.c        ****                     DriveTimeCount = 0;
 137              		.loc 1 412 0
 138 0034 0026     		movs	r6, #0
 139              	.LVL20:
 411:main.c        ****                     DriveTimeCount = 0;
 140              		.loc 1 411 0
 141 0036 0124     		movs	r4, #1
 142              	.LVL21:
 143 0038 11E0     		b	.L4
 144              	.LVL22:
 145              	.L32:
 413:main.c        ****                     break;
 414:main.c        ****                 }
 415:main.c        ****                 
 416:main.c        ****             break;
 417:main.c        ****                 
 418:main.c        **** 	        case Drive:
 419:main.c        ****                 //CAN_GlobalIntEnable();
ARM GAS  C:\Users\Schuyler\AppData\Local\Temp\ccoGzKg4.s 			page 11


 420:main.c        ****                 //CAN_Init();
 421:main.c        ****                 //CAN_Start();
 422:main.c        ****                 
 423:main.c        ****                 can_send_status(state, error_state);
 424:main.c        ****                 //
 425:main.c        ****                 // RGB code goes here
 426:main.c        ****                 // Green
 427:main.c        ****                 RGB3_1_Write(1);
 428:main.c        ****                 RGB2_1_Write(0);
 429:main.c        ****                 RGB1_1_Write(1);
 430:main.c        ****                 
 431:main.c        ****                 RGB3_2_Write(1);
 432:main.c        ****                 RGB2_2_Write(1);
 433:main.c        ****                 RGB1_2_Write(1);
 434:main.c        ****                 
 435:main.c        ****                 //CyDelay(10000); // debug
 436:main.c        ****                 
 437:main.c        ****                 //Buzzer_Write(1);
 438:main.c        ****                 //CyDelay(5000);
 439:main.c        ****                 //Buzzer_Write(0);
 440:main.c        ****                 
 441:main.c        ****                 //CyDelay(500);
 442:main.c        ****                 
 443:main.c        ****                 
 444:main.c        ****                 uint8_t ACK = 0xFF;
 445:main.c        ****                 
 446:main.c        ****                 DriveTimeCount++;
 447:main.c        ****                 if (DriveTimeCount > 100) //EDIT: was 100!
 448:main.c        ****                 {
 449:main.c        ****                     DriveTimeCount = 0; 
 450:main.c        ****                     ACK = getAckRx();
 451:main.c        ****                 }
 452:main.c        ****    
 453:main.c        ****                 uint8_t ABS_Motor_RPM = getABSMotorRPM();
 454:main.c        ****                 uint8_t Throttle_High = getPedalHigh();//manga_getThrottleHigh(); // use 123 for pe
 455:main.c        ****                 uint8_t Throttle_Low = getPedalLow();//manga_getThrottleLow();
 456:main.c        ****                 
 457:main.c        ****                 WaveDAC8_1_SetValue(ABS_Motor_RPM);
 458:main.c        ****                 can_send_cmd(1,Throttle_High,Throttle_Low); // setInterlock 
 459:main.c        ****                 
 460:main.c        ****                 //check if everything is going well
 461:main.c        ****                 if (!HV_Read())
 462:main.c        ****                     state = LV;
 463:main.c        ****                 
 464:main.c        ****                 if (!Drive_Read())
 465:main.c        ****                     state = HV_Enabled;
 466:main.c        ****                 
 467:main.c        ****                 if ((ACK != 0xFF) | 
 468:main.c        ****                     (!getCurtisHeartBeatCheck())) // EDIT: Removed | CurtisFaultCheck from this 
 469:main.c        ****                 {
 470:main.c        ****                     state = Fault;
 471:main.c        ****                     error_state = fromDrive;
 472:main.c        ****                     DriveTimeCount = 0;
 146              		.loc 1 472 0
 147 003a 0026     		movs	r6, #0
 148              	.LVL23:
 471:main.c        ****                     DriveTimeCount = 0;
ARM GAS  C:\Users\Schuyler\AppData\Local\Temp\ccoGzKg4.s 			page 12


 149              		.loc 1 471 0
 150 003c 0425     		movs	r5, #4
 151              	.LVL24:
 470:main.c        ****                     error_state = fromDrive;
 152              		.loc 1 470 0
 153 003e 0524     		movs	r4, #5
 154              	.LVL25:
 155 0040 0DE0     		b	.L4
 156              	.LVL26:
 157              	.L33:
 473:main.c        ****                     break;
 474:main.c        ****                 }
 475:main.c        ****                 
 476:main.c        ****                     
 477:main.c        ****                 // need to map ABS_Motor_RPM into 1-253 scale.
 478:main.c        ****                 
 479:main.c        ****                 /*
 480:main.c        ****                 if (ABS_Motor_RPM>=253)
 481:main.c        ****                 {
 482:main.c        ****                     direction=-1;
 483:main.c        ****                 }
 484:main.c        ****                 else if (ABS_Motor_RPM<=1)
 485:main.c        ****                 {
 486:main.c        ****                     direction=1;
 487:main.c        ****                 }
 488:main.c        ****                 value+=direction;
 489:main.c        ****                 //CyDelay(100);
 490:main.c        ****                 */
 491:main.c        ****             break;
 492:main.c        ****                 
 493:main.c        **** 	        case Fault:
 494:main.c        ****                 
 495:main.c        ****                 CAN_GlobalIntEnable();
 496:main.c        ****                 CAN_Init();
 497:main.c        ****                 CAN_Start();
 498:main.c        ****                 //nodeCheckStart();
 499:main.c        ****                 
 500:main.c        ****                 can_send_status(state, error_state);
 501:main.c        ****                 
 502:main.c        ****                 //
 503:main.c        ****                 // RGB code goes here
 504:main.c        ****                 // flashing red
 505:main.c        ****                 RGB3_1_Write(1);
 506:main.c        ****                 RGB2_1_Write(1);
 507:main.c        ****                 RGB1_1_Write(1);
 508:main.c        ****                 
 509:main.c        ****                 RGB3_2_Write(1);
 510:main.c        ****                 RGB2_2_Write(1);
 511:main.c        ****                 RGB1_2_Write(1);
 512:main.c        ****                 
 513:main.c        ****                 RGB3_1_Write(0);
 514:main.c        ****                 CyDelay(1000);
 515:main.c        ****                 RGB3_1_Write(1);
 516:main.c        ****                 CyDelay(1000);
 517:main.c        ****                 
 518:main.c        ****                 Buzzer_Write(0);
 519:main.c        ****                 
ARM GAS  C:\Users\Schuyler\AppData\Local\Temp\ccoGzKg4.s 			page 13


 520:main.c        ****                 if(error_state == fromLV)
 521:main.c        ****                 {
 522:main.c        ****                     if(!Drive_Read())
 523:main.c        ****                     {
 524:main.c        ****                         state = LV;
 525:main.c        ****                         error_state = OK;
 158              		.loc 1 525 0
 159 0042 0025     		movs	r5, #0
 160              	.LVL27:
 524:main.c        ****                         error_state = OK;
 161              		.loc 1 524 0
 162 0044 0124     		movs	r4, #1
 163              	.LVL28:
 164 0046 0AE0     		b	.L4
 165              	.LVL29:
 166              	.L34:
 526:main.c        ****                     }
 527:main.c        ****                 }
 528:main.c        ****                 else if (error_state == fromPrecharging)
 529:main.c        ****                 {
 530:main.c        ****                     if(!Drive_Read() && !HV_Read())
 531:main.c        ****                     {
 532:main.c        ****                         state = LV;
 533:main.c        ****                         error_state = OK;
 167              		.loc 1 533 0
 168 0048 0025     		movs	r5, #0
 169              	.LVL30:
 532:main.c        ****                         error_state = OK;
 170              		.loc 1 532 0
 171 004a 0124     		movs	r4, #1
 172              	.LVL31:
 173 004c 07E0     		b	.L4
 174              	.LVL32:
 175              	.L35:
 534:main.c        ****                     }
 535:main.c        ****                 }
 536:main.c        ****                 else if (error_state == fromHV_Enabled)
 537:main.c        ****                 {
 538:main.c        ****                     if(!Drive_Read())
 539:main.c        ****                     {
 540:main.c        ****                         state = HV_Enabled;
 541:main.c        ****                         error_state = OK;
 176              		.loc 1 541 0
 177 004e 0025     		movs	r5, #0
 178              	.LVL33:
 540:main.c        ****                         error_state = OK;
 179              		.loc 1 540 0
 180 0050 0324     		movs	r4, #3
 181              	.LVL34:
 182 0052 04E0     		b	.L4
 183              	.LVL35:
 184              	.L36:
 542:main.c        ****                     }
 543:main.c        ****                 }
 544:main.c        ****                 else if (error_state == fromDrive)
 545:main.c        ****                 {   
 546:main.c        ****                     can_send_cmd(1,Throttle_High,Throttle_Low); // setInterlock
ARM GAS  C:\Users\Schuyler\AppData\Local\Temp\ccoGzKg4.s 			page 14


 547:main.c        ****                     
 548:main.c        ****                     CyDelay(200);
 549:main.c        ****                     
 550:main.c        ****                     // Curtis Come back online again without error
 551:main.c        ****                     if((getCurtisHeartBeatCheck())) // EDIT: Removed !(Curtis_Fault_Check(data_queu
 552:main.c        ****                     {
 553:main.c        ****                         state = LV;
 554:main.c        ****                         error_state = OK;
 185              		.loc 1 554 0
 186 0054 0025     		movs	r5, #0
 187              	.LVL36:
 553:main.c        ****                         error_state = OK;
 188              		.loc 1 553 0
 189 0056 0124     		movs	r4, #1
 190              	.LVL37:
 191 0058 01E0     		b	.L4
 192              	.LVL38:
 193              	.L37:
 555:main.c        ****                     }
 556:main.c        ****                     else if(0xFF == getAckRx()) //ACK received
 557:main.c        ****                     {
 558:main.c        ****                         state = HV_Enabled;
 559:main.c        ****                         error_state = OK;
 194              		.loc 1 559 0
 195 005a 0025     		movs	r5, #0
 196              	.LVL39:
 558:main.c        ****                         error_state = OK;
 197              		.loc 1 558 0
 198 005c 0324     		movs	r4, #3
 199              	.LVL40:
 200              	.L4:
 201              	.LBE2:
 172:main.c        ****         RGB2_2_Write(1);
 202              		.loc 1 172 0
 203 005e 0120     		movs	r0, #1
 204 0060 FFF7FEFF 		bl	RGB3_2_Write
 205              	.LVL41:
 173:main.c        ****         RGB1_2_Write(1);
 206              		.loc 1 173 0
 207 0064 0120     		movs	r0, #1
 208 0066 FFF7FEFF 		bl	RGB2_2_Write
 209              	.LVL42:
 174:main.c        ****         
 210              		.loc 1 174 0
 211 006a 0120     		movs	r0, #1
 212 006c FFF7FEFF 		bl	RGB1_2_Write
 213              	.LVL43:
 177:main.c        ****         {
 214              		.loc 1 177 0
 215 0070 CE4B     		ldr	r3, .L39
 216 0072 1B68     		ldr	r3, [r3]
 217 0074 642B     		cmp	r3, #100
 218 0076 06D9     		bls	.L5
 179:main.c        ****             state = Fault;
 219              		.loc 1 179 0
 220 0078 0022     		movs	r2, #0
 221 007a 1146     		mov	r1, r2
ARM GAS  C:\Users\Schuyler\AppData\Local\Temp\ccoGzKg4.s 			page 15


 222 007c 0120     		movs	r0, #1
 223 007e FFF7FEFF 		bl	can_send_cmd
 224              	.LVL44:
 181:main.c        ****         }
 225              		.loc 1 181 0
 226 0082 0625     		movs	r5, #6
 180:main.c        ****             error_state = nodeFailure;
 227              		.loc 1 180 0
 228 0084 0524     		movs	r4, #5
 229              	.LVL45:
 230              	.L5:
 184:main.c        ****         {    
 231              		.loc 1 184 0
 232 0086 052C     		cmp	r4, #5
 233 0088 00F27D81 		bhi	.L6
 234 008c DFE814F0 		tbh	[pc, r4, lsl #1]
 235              	.L8:
 236 0090 0600     		.2byte	(.L7-.L8)/2
 237 0092 2A00     		.2byte	(.L9-.L8)/2
 238 0094 5900     		.2byte	(.L10-.L8)/2
 239 0096 9000     		.2byte	(.L11-.L8)/2
 240 0098 D200     		.2byte	(.L12-.L8)/2
 241 009a 1A01     		.2byte	(.L13-.L8)/2
 242              		.p2align 1
 243              	.L7:
 244              	.LBB5:
 191:main.c        ****                 CAN_Init();
 245              		.loc 1 191 0
 246 009c FFF7FEFF 		bl	CAN_GlobalIntEnable
 247              	.LVL46:
 192:main.c        ****                 CAN_Start();
 248              		.loc 1 192 0
 249 00a0 FFF7FEFF 		bl	CAN_Init
 250              	.LVL47:
 193:main.c        ****                 CyDelay(1000);
 251              		.loc 1 193 0
 252 00a4 FFF7FEFF 		bl	CAN_Start
 253              	.LVL48:
 194:main.c        ****                 //nodeCheckStart(); EDIT UNCOMMENT
 254              		.loc 1 194 0
 255 00a8 4FF47A70 		mov	r0, #1000
 256 00ac FFF7FEFF 		bl	CyDelay
 257              	.LVL49:
 198:main.c        **** 
 258              		.loc 1 198 0
 259 00b0 2946     		mov	r1, r5
 260 00b2 2046     		mov	r0, r4
 261 00b4 FFF7FEFF 		bl	can_send_status
 262              	.LVL50:
 203:main.c        ****                 
 263              		.loc 1 203 0
 264 00b8 FFF7FEFF 		bl	LCD_Start
 265              	.LVL51:
 207:main.c        ****                 WaveDAC8_1_SetValue(253);
 266              		.loc 1 207 0
 267 00bc 0120     		movs	r0, #1
 268 00be FFF7FEFF 		bl	Buzzer_Write
ARM GAS  C:\Users\Schuyler\AppData\Local\Temp\ccoGzKg4.s 			page 16


 269              	.LVL52:
 208:main.c        ****                 CyDelay(50);
 270              		.loc 1 208 0
 271 00c2 FD20     		movs	r0, #253
 272 00c4 FFF7FEFF 		bl	WaveDAC8_1_VDAC8_SetValue
 273              	.LVL53:
 209:main.c        ****                 
 274              		.loc 1 209 0
 275 00c8 3220     		movs	r0, #50
 276 00ca FFF7FEFF 		bl	CyDelay
 277              	.LVL54:
 244:main.c        ****                 WaveDAC8_1_SetValue(250);
 278              		.loc 1 244 0
 279 00ce 0020     		movs	r0, #0
 280 00d0 FFF7FEFF 		bl	Buzzer_Write
 281              	.LVL55:
 245:main.c        ****                 //CyDelay(5000);
 282              		.loc 1 245 0
 283 00d4 FA20     		movs	r0, #250
 284 00d6 FFF7FEFF 		bl	WaveDAC8_1_VDAC8_SetValue
 285              	.LVL56:
 247:main.c        ****                 
 286              		.loc 1 247 0
 287 00da 0020     		movs	r0, #0
 288 00dc FFF7FEFF 		bl	WaveDAC8_1_VDAC8_SetValue
 289              	.LVL57:
 249:main.c        ****                 
 290              		.loc 1 249 0
 291 00e0 0124     		movs	r4, #1
 251:main.c        ****                 
 292              		.loc 1 251 0
 293 00e2 BCE7     		b	.L4
 294              	.LVL58:
 295              	.L9:
 255:main.c        ****                 CAN_GlobalIntEnable();
 296              		.loc 1 255 0
 297 00e4 0022     		movs	r2, #0
 298 00e6 1146     		mov	r1, r2
 299 00e8 1046     		mov	r0, r2
 300 00ea FFF7FEFF 		bl	can_send_cmd
 301              	.LVL59:
 256:main.c        ****                 CAN_Init();
 302              		.loc 1 256 0
 303 00ee FFF7FEFF 		bl	CAN_GlobalIntEnable
 304              	.LVL60:
 257:main.c        ****                 CAN_Start();
 305              		.loc 1 257 0
 306 00f2 FFF7FEFF 		bl	CAN_Init
 307              	.LVL61:
 258:main.c        ****                 //nodeCheckStart();
 308              		.loc 1 258 0
 309 00f6 FFF7FEFF 		bl	CAN_Start
 310              	.LVL62:
 261:main.c        **** 
 311              		.loc 1 261 0
 312 00fa 2946     		mov	r1, r5
 313 00fc 2046     		mov	r0, r4
ARM GAS  C:\Users\Schuyler\AppData\Local\Temp\ccoGzKg4.s 			page 17


 314 00fe FFF7FEFF 		bl	can_send_status
 315              	.LVL63:
 284:main.c        ****                 
 316              		.loc 1 284 0
 317 0102 0020     		movs	r0, #0
 318 0104 FFF7FEFF 		bl	Buzzer_Write
 319              	.LVL64:
 292:main.c        ****                 RGB2_1_Write(1);
 320              		.loc 1 292 0
 321 0108 0020     		movs	r0, #0
 322 010a FFF7FEFF 		bl	RGB3_1_Write
 323              	.LVL65:
 293:main.c        ****                 RGB1_1_Write(0);
 324              		.loc 1 293 0
 325 010e 0120     		movs	r0, #1
 326 0110 FFF7FEFF 		bl	RGB2_1_Write
 327              	.LVL66:
 294:main.c        ****                 
 328              		.loc 1 294 0
 329 0114 0020     		movs	r0, #0
 330 0116 FFF7FEFF 		bl	RGB1_1_Write
 331              	.LVL67:
 296:main.c        ****                 RGB2_2_Write(1);
 332              		.loc 1 296 0
 333 011a 0120     		movs	r0, #1
 334 011c FFF7FEFF 		bl	RGB3_2_Write
 335              	.LVL68:
 297:main.c        ****                 RGB1_2_Write(1);
 336              		.loc 1 297 0
 337 0120 0120     		movs	r0, #1
 338 0122 FFF7FEFF 		bl	RGB2_2_Write
 339              	.LVL69:
 298:main.c        ****                 
 340              		.loc 1 298 0
 341 0126 0120     		movs	r0, #1
 342 0128 FFF7FEFF 		bl	RGB1_2_Write
 343              	.LVL70:
 300:main.c        ****                 {
 344              		.loc 1 300 0
 345 012c FFF7FEFF 		bl	Drive_Read
 346              	.LVL71:
 347 0130 0028     		cmp	r0, #0
 348 0132 7FF472AF 		bne	.L23
 307:main.c        ****                 {
 349              		.loc 1 307 0
 350 0136 FFF7FEFF 		bl	HV_Read
 351              	.LVL72:
 352 013a 0028     		cmp	r0, #0
 353 013c 7FF470AF 		bne	.L24
 354 0140 8DE7     		b	.L4
 355              	.L10:
 316:main.c        ****                 CAN_Init();
 356              		.loc 1 316 0
 357 0142 FFF7FEFF 		bl	CAN_GlobalIntEnable
 358              	.LVL73:
 317:main.c        ****                 CAN_Start();
 359              		.loc 1 317 0
ARM GAS  C:\Users\Schuyler\AppData\Local\Temp\ccoGzKg4.s 			page 18


 360 0146 FFF7FEFF 		bl	CAN_Init
 361              	.LVL74:
 318:main.c        ****                 //nodeCheckStart();
 362              		.loc 1 318 0
 363 014a FFF7FEFF 		bl	CAN_Start
 364              	.LVL75:
 321:main.c        ****                 
 365              		.loc 1 321 0
 366 014e 2946     		mov	r1, r5
 367 0150 2046     		mov	r0, r4
 368 0152 FFF7FEFF 		bl	can_send_status
 369              	.LVL76:
 323:main.c        ****                 RGB2_1_Write(0);
 370              		.loc 1 323 0
 371 0156 0020     		movs	r0, #0
 372 0158 FFF7FEFF 		bl	RGB3_1_Write
 373              	.LVL77:
 324:main.c        ****                 RGB1_1_Write(1);
 374              		.loc 1 324 0
 375 015c 0020     		movs	r0, #0
 376 015e FFF7FEFF 		bl	RGB2_1_Write
 377              	.LVL78:
 325:main.c        ****                 
 378              		.loc 1 325 0
 379 0162 0120     		movs	r0, #1
 380 0164 FFF7FEFF 		bl	RGB1_1_Write
 381              	.LVL79:
 327:main.c        ****                 RGB2_2_Write(1);
 382              		.loc 1 327 0
 383 0168 0120     		movs	r0, #1
 384 016a FFF7FEFF 		bl	RGB3_2_Write
 385              	.LVL80:
 328:main.c        ****                 RGB1_2_Write(1);
 386              		.loc 1 328 0
 387 016e 0120     		movs	r0, #1
 388 0170 FFF7FEFF 		bl	RGB2_2_Write
 389              	.LVL81:
 329:main.c        ****                 
 390              		.loc 1 329 0
 391 0174 0120     		movs	r0, #1
 392 0176 FFF7FEFF 		bl	RGB1_2_Write
 393              	.LVL82:
 331:main.c        ****                 
 394              		.loc 1 331 0
 395 017a 0020     		movs	r0, #0
 396 017c FFF7FEFF 		bl	Buzzer_Write
 397              	.LVL83:
 334:main.c        ****                 
 398              		.loc 1 334 0
 399 0180 0023     		movs	r3, #0
 400 0182 0193     		str	r3, [sp, #4]
 401              	.L15:
 402              	.LBB4:
 338:main.c        ****                 
 403              		.loc 1 338 0
 404 0184 0022     		movs	r2, #0
 405 0186 1146     		mov	r1, r2
ARM GAS  C:\Users\Schuyler\AppData\Local\Temp\ccoGzKg4.s 			page 19


 406 0188 0120     		movs	r0, #1
 407 018a FFF7FEFF 		bl	can_send_cmd
 408              	.LVL84:
 341:main.c        ****                     // UNUSED //uint8_t NomialVolt =  can_read(data_queue, data_head, data_tail, 0x
 409              		.loc 1 341 0
 410 018e FFF7FEFF 		bl	getCapacitorVoltage
 411              	.LVL85:
 344:main.c        ****                     {
 412              		.loc 1 344 0
 413 0192 1528     		cmp	r0, #21
 414 0194 3FF646AF 		bhi	.L25
 351:main.c        ****                 
 415              		.loc 1 351 0
 416 0198 019B     		ldr	r3, [sp, #4]
 417 019a 0133     		adds	r3, r3, #1
 418 019c 0193     		str	r3, [sp, #4]
 353:main.c        ****                     {
 419              		.loc 1 353 0
 420 019e 019B     		ldr	r3, [sp, #4]
 421 01a0 0A2B     		cmp	r3, #10
 422 01a2 3FF441AF 		beq	.L26
 360:main.c        ****                 }    
 423              		.loc 1 360 0
 424 01a6 4FF47A70 		mov	r0, #1000
 425              	.LVL86:
 426 01aa FFF7FEFF 		bl	CyDelay
 427              	.LVL87:
 428              	.LBE4:
 361:main.c        ****                 
 429              		.loc 1 361 0
 430 01ae E9E7     		b	.L15
 431              	.L11:
 367:main.c        ****                 CAN_Init();
 432              		.loc 1 367 0
 433 01b0 FFF7FEFF 		bl	CAN_GlobalIntEnable
 434              	.LVL88:
 368:main.c        ****                 CAN_Start();
 435              		.loc 1 368 0
 436 01b4 FFF7FEFF 		bl	CAN_Init
 437              	.LVL89:
 369:main.c        ****                 
 438              		.loc 1 369 0
 439 01b8 FFF7FEFF 		bl	CAN_Start
 440              	.LVL90:
 373:main.c        ****                 
 441              		.loc 1 373 0
 442 01bc 2946     		mov	r1, r5
 443 01be 2046     		mov	r0, r4
 444 01c0 FFF7FEFF 		bl	can_send_status
 445              	.LVL91:
 378:main.c        ****                 RGB2_1_Write(1);
 446              		.loc 1 378 0
 447 01c4 0120     		movs	r0, #1
 448 01c6 FFF7FEFF 		bl	RGB3_1_Write
 449              	.LVL92:
 379:main.c        ****                 RGB1_1_Write(0);
 450              		.loc 1 379 0
ARM GAS  C:\Users\Schuyler\AppData\Local\Temp\ccoGzKg4.s 			page 20


 451 01ca 0120     		movs	r0, #1
 452 01cc FFF7FEFF 		bl	RGB2_1_Write
 453              	.LVL93:
 380:main.c        ****                 
 454              		.loc 1 380 0
 455 01d0 0020     		movs	r0, #0
 456 01d2 FFF7FEFF 		bl	RGB1_1_Write
 457              	.LVL94:
 382:main.c        ****                 RGB2_2_Write(1);
 458              		.loc 1 382 0
 459 01d6 0120     		movs	r0, #1
 460 01d8 FFF7FEFF 		bl	RGB3_2_Write
 461              	.LVL95:
 383:main.c        ****                 RGB1_2_Write(1);
 462              		.loc 1 383 0
 463 01dc 0120     		movs	r0, #1
 464 01de FFF7FEFF 		bl	RGB2_2_Write
 465              	.LVL96:
 384:main.c        ****                 //CyDelay(5000); ///for debug
 466              		.loc 1 384 0
 467 01e2 0120     		movs	r0, #1
 468 01e4 FFF7FEFF 		bl	RGB1_2_Write
 469              	.LVL97:
 387:main.c        ****                 
 470              		.loc 1 387 0
 471 01e8 0020     		movs	r0, #0
 472 01ea FFF7FEFF 		bl	Buzzer_Write
 473              	.LVL98:
 389:main.c        ****                 {
 474              		.loc 1 389 0
 475 01ee FFF7FEFF 		bl	Drive_Read
 476              	.LVL99:
 477 01f2 98B1     		cbz	r0, .L16
 391:main.c        ****                     if(getErrorTolerance() == 1) // 100 for error tolerance /// needs to be getErro
 478              		.loc 1 391 0
 479 01f4 4FF47A70 		mov	r0, #1000
 480 01f8 FFF7FEFF 		bl	CyDelay
 481              	.LVL100:
 392:main.c        ****                     {
 482              		.loc 1 392 0
 483 01fc FFF7FEFF 		bl	getErrorTolerance
 484              	.LVL101:
 485 0200 0128     		cmp	r0, #1
 486 0202 7FF414AF 		bne	.L27
 394:main.c        ****                         CyDelay(1000);
 487              		.loc 1 394 0
 488 0206 FFF7FEFF 		bl	Buzzer_Write
 489              	.LVL102:
 395:main.c        ****                         Buzzer_Write(0);
 490              		.loc 1 395 0
 491 020a 4FF47A70 		mov	r0, #1000
 492 020e FFF7FEFF 		bl	CyDelay
 493              	.LVL103:
 396:main.c        ****                         state = Drive;
 494              		.loc 1 396 0
 495 0212 0020     		movs	r0, #0
 496 0214 FFF7FEFF 		bl	Buzzer_Write
ARM GAS  C:\Users\Schuyler\AppData\Local\Temp\ccoGzKg4.s 			page 21


 497              	.LVL104:
 397:main.c        ****                         break;
 498              		.loc 1 397 0
 499 0218 0424     		movs	r4, #4
 398:main.c        ****                     }
 500              		.loc 1 398 0
 501 021a 20E7     		b	.L4
 502              	.LVL105:
 503              	.L16:
 409:main.c        ****                 {
 504              		.loc 1 409 0
 505 021c FFF7FEFF 		bl	HV_Read
 506              	.LVL106:
 507 0220 8146     		mov	r9, r0
 508 0222 FFF7FEFF 		bl	getCapacitorVoltage
 509              	.LVL107:
 510 0226 B9F1000F 		cmp	r9, #0
 511 022a 18BF     		it	ne
 512 022c 1528     		cmpne	r0, #21
 513 022e 7FF601AF 		bls	.L28
 514 0232 14E7     		b	.L4
 515              	.L12:
 423:main.c        ****                 //
 516              		.loc 1 423 0
 517 0234 2946     		mov	r1, r5
 518 0236 2046     		mov	r0, r4
 519 0238 FFF7FEFF 		bl	can_send_status
 520              	.LVL108:
 427:main.c        ****                 RGB2_1_Write(0);
 521              		.loc 1 427 0
 522 023c 0120     		movs	r0, #1
 523 023e FFF7FEFF 		bl	RGB3_1_Write
 524              	.LVL109:
 428:main.c        ****                 RGB1_1_Write(1);
 525              		.loc 1 428 0
 526 0242 0020     		movs	r0, #0
 527 0244 FFF7FEFF 		bl	RGB2_1_Write
 528              	.LVL110:
 429:main.c        ****                 
 529              		.loc 1 429 0
 530 0248 0120     		movs	r0, #1
 531 024a FFF7FEFF 		bl	RGB1_1_Write
 532              	.LVL111:
 431:main.c        ****                 RGB2_2_Write(1);
 533              		.loc 1 431 0
 534 024e 0120     		movs	r0, #1
 535 0250 FFF7FEFF 		bl	RGB3_2_Write
 536              	.LVL112:
 432:main.c        ****                 RGB1_2_Write(1);
 537              		.loc 1 432 0
 538 0254 0120     		movs	r0, #1
 539 0256 FFF7FEFF 		bl	RGB2_2_Write
 540              	.LVL113:
 433:main.c        ****                 
 541              		.loc 1 433 0
 542 025a 0120     		movs	r0, #1
 543 025c FFF7FEFF 		bl	RGB1_2_Write
ARM GAS  C:\Users\Schuyler\AppData\Local\Temp\ccoGzKg4.s 			page 22


 544              	.LVL114:
 446:main.c        ****                 if (DriveTimeCount > 100) //EDIT: was 100!
 545              		.loc 1 446 0
 546 0260 0136     		adds	r6, r6, #1
 547              	.LVL115:
 447:main.c        ****                 {
 548              		.loc 1 447 0
 549 0262 642E     		cmp	r6, #100
 550 0264 04D9     		bls	.L29
 551              	.LVL116:
 450:main.c        ****                 }
 552              		.loc 1 450 0
 553 0266 FFF7FEFF 		bl	getAckRx
 554              	.LVL117:
 555 026a 8246     		mov	r10, r0
 556              	.LVL118:
 449:main.c        ****                     ACK = getAckRx();
 557              		.loc 1 449 0
 558 026c 0026     		movs	r6, #0
 559 026e 01E0     		b	.L17
 560              	.LVL119:
 561              	.L29:
 444:main.c        ****                 
 562              		.loc 1 444 0
 563 0270 4FF0FF0A 		mov	r10, #255
 564              	.LVL120:
 565              	.L17:
 453:main.c        ****                 uint8_t Throttle_High = getPedalHigh();//manga_getThrottleHigh(); // use 123 for pe
 566              		.loc 1 453 0
 567 0274 FFF7FEFF 		bl	getABSMotorRPM
 568              	.LVL121:
 569 0278 8146     		mov	r9, r0
 570              	.LVL122:
 454:main.c        ****                 uint8_t Throttle_Low = getPedalLow();//manga_getThrottleLow();
 571              		.loc 1 454 0
 572 027a FFF7FEFF 		bl	getPedalHigh
 573              	.LVL123:
 574 027e 0746     		mov	r7, r0
 575              	.LVL124:
 455:main.c        ****                 
 576              		.loc 1 455 0
 577 0280 FFF7FEFF 		bl	getPedalLow
 578              	.LVL125:
 579 0284 8046     		mov	r8, r0
 580              	.LVL126:
 457:main.c        ****                 can_send_cmd(1,Throttle_High,Throttle_Low); // setInterlock 
 581              		.loc 1 457 0
 582 0286 4846     		mov	r0, r9
 583 0288 FFF7FEFF 		bl	WaveDAC8_1_VDAC8_SetValue
 584              	.LVL127:
 458:main.c        ****                 
 585              		.loc 1 458 0
 586 028c 1FFA88F2 		uxth	r2, r8
 587 0290 B9B2     		uxth	r1, r7
 588 0292 0120     		movs	r0, #1
 589 0294 FFF7FEFF 		bl	can_send_cmd
 590              	.LVL128:
ARM GAS  C:\Users\Schuyler\AppData\Local\Temp\ccoGzKg4.s 			page 23


 461:main.c        ****                     state = LV;
 591              		.loc 1 461 0
 592 0298 FFF7FEFF 		bl	HV_Read
 593              	.LVL129:
 594 029c 00B9     		cbnz	r0, .L18
 462:main.c        ****                 
 595              		.loc 1 462 0
 596 029e 0124     		movs	r4, #1
 597              	.LVL130:
 598              	.L18:
 464:main.c        ****                     state = HV_Enabled;
 599              		.loc 1 464 0
 600 02a0 FFF7FEFF 		bl	Drive_Read
 601              	.LVL131:
 602 02a4 00B9     		cbnz	r0, .L19
 465:main.c        ****                 
 603              		.loc 1 465 0
 604 02a6 0324     		movs	r4, #3
 605              	.LVL132:
 606              	.L19:
 468:main.c        ****                 {
 607              		.loc 1 468 0
 608 02a8 FFF7FEFF 		bl	getCurtisHeartBeatCheck
 609              	.LVL133:
 467:main.c        ****                     (!getCurtisHeartBeatCheck())) // EDIT: Removed | CurtisFaultCheck from this 
 610              		.loc 1 467 0
 611 02ac B0FA80F0 		clz	r0, r0
 612 02b0 4009     		lsrs	r0, r0, #5
 613 02b2 BAF1FF0F 		cmp	r10, #255
 614 02b6 18BF     		it	ne
 615 02b8 40F00100 		orrne	r0, r0, #1
 616 02bc 0028     		cmp	r0, #0
 617 02be 7FF4BCAE 		bne	.L32
 618 02c2 CCE6     		b	.L4
 619              	.LVL134:
 620              	.L13:
 495:main.c        ****                 CAN_Init();
 621              		.loc 1 495 0
 622 02c4 FFF7FEFF 		bl	CAN_GlobalIntEnable
 623              	.LVL135:
 496:main.c        ****                 CAN_Start();
 624              		.loc 1 496 0
 625 02c8 FFF7FEFF 		bl	CAN_Init
 626              	.LVL136:
 497:main.c        ****                 //nodeCheckStart();
 627              		.loc 1 497 0
 628 02cc FFF7FEFF 		bl	CAN_Start
 629              	.LVL137:
 500:main.c        ****                 
 630              		.loc 1 500 0
 631 02d0 2946     		mov	r1, r5
 632 02d2 2046     		mov	r0, r4
 633 02d4 FFF7FEFF 		bl	can_send_status
 634              	.LVL138:
 505:main.c        ****                 RGB2_1_Write(1);
 635              		.loc 1 505 0
 636 02d8 0120     		movs	r0, #1
ARM GAS  C:\Users\Schuyler\AppData\Local\Temp\ccoGzKg4.s 			page 24


 637 02da FFF7FEFF 		bl	RGB3_1_Write
 638              	.LVL139:
 506:main.c        ****                 RGB1_1_Write(1);
 639              		.loc 1 506 0
 640 02de 0120     		movs	r0, #1
 641 02e0 FFF7FEFF 		bl	RGB2_1_Write
 642              	.LVL140:
 507:main.c        ****                 
 643              		.loc 1 507 0
 644 02e4 0120     		movs	r0, #1
 645 02e6 FFF7FEFF 		bl	RGB1_1_Write
 646              	.LVL141:
 509:main.c        ****                 RGB2_2_Write(1);
 647              		.loc 1 509 0
 648 02ea 0120     		movs	r0, #1
 649 02ec FFF7FEFF 		bl	RGB3_2_Write
 650              	.LVL142:
 510:main.c        ****                 RGB1_2_Write(1);
 651              		.loc 1 510 0
 652 02f0 0120     		movs	r0, #1
 653 02f2 FFF7FEFF 		bl	RGB2_2_Write
 654              	.LVL143:
 511:main.c        ****                 
 655              		.loc 1 511 0
 656 02f6 0120     		movs	r0, #1
 657 02f8 FFF7FEFF 		bl	RGB1_2_Write
 658              	.LVL144:
 513:main.c        ****                 CyDelay(1000);
 659              		.loc 1 513 0
 660 02fc 0020     		movs	r0, #0
 661 02fe FFF7FEFF 		bl	RGB3_1_Write
 662              	.LVL145:
 514:main.c        ****                 RGB3_1_Write(1);
 663              		.loc 1 514 0
 664 0302 4FF47A70 		mov	r0, #1000
 665 0306 FFF7FEFF 		bl	CyDelay
 666              	.LVL146:
 515:main.c        ****                 CyDelay(1000);
 667              		.loc 1 515 0
 668 030a 0120     		movs	r0, #1
 669 030c FFF7FEFF 		bl	RGB3_1_Write
 670              	.LVL147:
 516:main.c        ****                 
 671              		.loc 1 516 0
 672 0310 4FF47A70 		mov	r0, #1000
 673 0314 FFF7FEFF 		bl	CyDelay
 674              	.LVL148:
 518:main.c        ****                 
 675              		.loc 1 518 0
 676 0318 0020     		movs	r0, #0
 677 031a FFF7FEFF 		bl	Buzzer_Write
 678              	.LVL149:
 520:main.c        ****                 {
 679              		.loc 1 520 0
 680 031e 012D     		cmp	r5, #1
 681 0320 05D1     		bne	.L20
 522:main.c        ****                     {
ARM GAS  C:\Users\Schuyler\AppData\Local\Temp\ccoGzKg4.s 			page 25


 682              		.loc 1 522 0
 683 0322 FFF7FEFF 		bl	Drive_Read
 684              	.LVL150:
 685 0326 0028     		cmp	r0, #0
 686 0328 3FF48BAE 		beq	.L33
 687 032c 97E6     		b	.L4
 688              	.L20:
 528:main.c        ****                 {
 689              		.loc 1 528 0
 690 032e 022D     		cmp	r5, #2
 691 0330 0AD1     		bne	.L21
 530:main.c        ****                     {
 692              		.loc 1 530 0
 693 0332 FFF7FEFF 		bl	Drive_Read
 694              	.LVL151:
 695 0336 0028     		cmp	r0, #0
 696 0338 7FF491AE 		bne	.L4
 530:main.c        ****                     {
 697              		.loc 1 530 0 is_stmt 0 discriminator 1
 698 033c FFF7FEFF 		bl	HV_Read
 699              	.LVL152:
 700 0340 0028     		cmp	r0, #0
 701 0342 3FF481AE 		beq	.L34
 702 0346 8AE6     		b	.L4
 703              	.L21:
 536:main.c        ****                 {
 704              		.loc 1 536 0 is_stmt 1
 705 0348 032D     		cmp	r5, #3
 706 034a 05D1     		bne	.L22
 538:main.c        ****                     {
 707              		.loc 1 538 0
 708 034c FFF7FEFF 		bl	Drive_Read
 709              	.LVL153:
 710 0350 0028     		cmp	r0, #0
 711 0352 3FF47CAE 		beq	.L35
 712 0356 82E6     		b	.L4
 713              	.L22:
 544:main.c        ****                 {   
 714              		.loc 1 544 0
 715 0358 042D     		cmp	r5, #4
 716 035a 7FF480AE 		bne	.L4
 546:main.c        ****                     
 717              		.loc 1 546 0
 718 035e 1FFA88F2 		uxth	r2, r8
 719 0362 B9B2     		uxth	r1, r7
 720 0364 0120     		movs	r0, #1
 721 0366 FFF7FEFF 		bl	can_send_cmd
 722              	.LVL154:
 548:main.c        ****                     
 723              		.loc 1 548 0
 724 036a C820     		movs	r0, #200
 725 036c FFF7FEFF 		bl	CyDelay
 726              	.LVL155:
 551:main.c        ****                     {
 727              		.loc 1 551 0
 728 0370 FFF7FEFF 		bl	getCurtisHeartBeatCheck
 729              	.LVL156:
ARM GAS  C:\Users\Schuyler\AppData\Local\Temp\ccoGzKg4.s 			page 26


 730 0374 0028     		cmp	r0, #0
 731 0376 7FF46DAE 		bne	.L36
 556:main.c        ****                     {
 732              		.loc 1 556 0
 733 037a FFF7FEFF 		bl	getAckRx
 734              	.LVL157:
 735 037e FF28     		cmp	r0, #255
 736 0380 7FF46DAE 		bne	.L4
 737 0384 69E6     		b	.L37
 738              	.L6:
 560:main.c        ****                     }                   
 561:main.c        ****                 }
 562:main.c        ****                 else if (error_state == nodeFailure)
 563:main.c        ****                 {
 564:main.c        ****                     state = Fault;
 565:main.c        ****                 }
 566:main.c        ****             break;
 567:main.c        ****                 
 568:main.c        ****             default:
 569:main.c        ****                 RGB3_1_Write(1);
 739              		.loc 1 569 0
 740 0386 0120     		movs	r0, #1
 741 0388 FFF7FEFF 		bl	RGB3_1_Write
 742              	.LVL158:
 570:main.c        ****                 RGB2_1_Write(1);
 743              		.loc 1 570 0
 744 038c 0120     		movs	r0, #1
 745 038e FFF7FEFF 		bl	RGB2_1_Write
 746              	.LVL159:
 571:main.c        ****                 RGB1_1_Write(1);
 747              		.loc 1 571 0
 748 0392 0120     		movs	r0, #1
 749 0394 FFF7FEFF 		bl	RGB1_1_Write
 750              	.LVL160:
 572:main.c        ****                 
 573:main.c        ****                 RGB3_2_Write(1);
 751              		.loc 1 573 0
 752 0398 0120     		movs	r0, #1
 753 039a FFF7FEFF 		bl	RGB3_2_Write
 754              	.LVL161:
 574:main.c        ****                 RGB2_2_Write(1);
 755              		.loc 1 574 0
 756 039e 0120     		movs	r0, #1
 757 03a0 FFF7FEFF 		bl	RGB2_2_Write
 758              	.LVL162:
 575:main.c        ****                 RGB1_2_Write(1);
 759              		.loc 1 575 0
 760 03a4 0120     		movs	r0, #1
 761 03a6 FFF7FEFF 		bl	RGB1_2_Write
 762              	.LVL163:
 763 03aa 58E6     		b	.L4
 764              	.L40:
 765              		.align	2
 766              	.L39:
 767 03ac 00000000 		.word	.LANCHOR0
 768              	.LBE5:
 769              		.cfi_endproc
ARM GAS  C:\Users\Schuyler\AppData\Local\Temp\ccoGzKg4.s 			page 27


 770              	.LFE65:
 771              		.size	main, .-main
 772              		.section	.text.ISR_CAN,"ax",%progbits
 773              		.align	2
 774              		.global	ISR_CAN
 775              		.thumb
 776              		.thumb_func
 777              		.type	ISR_CAN, %function
 778              	ISR_CAN:
 779              	.LFB66:
 576:main.c        **** 
 577:main.c        ****         }// end of switch
 578:main.c        ****         
 579:main.c        ****         
 580:main.c        ****         //if (receiveMailboxNumber == CAN_RX_MAILBOX_switchStatus)
 581:main.c        ****         //{
 582:main.c        ****             //LCD_Position(1u, 3u);
 583:main.c        ****             //send
 584:main.c        ****             //if (CAN_RX_DATA_BYTE1(CAN_RX_MAILBOX_switchStatus) == SWITCH_PRESSED)
 585:main.c        ****             //{
 586:main.c        ****                 /* Display received switch status on LCD */
 587:main.c        ****             
 588:main.c        ****                 //LCD_PrintString("pressed ");
 589:main.c        **** 
 590:main.c        ****                 /* Increase the PWM pulse width */
 591:main.c        ****                 //pulseWidthValue += PWM_PULSE_WIDTH_STEP;
 592:main.c        **** 
 593:main.c        ****                 /* Send message with the new PWM pulse width */
 594:main.c        ****                 //dataPWM.byte[0u] = pulseWidthValue;
 595:main.c        ****                 //CAN_SendMsg(&messagePWM);
 596:main.c        **** 
 597:main.c        ****                 /* Display value of PWM pulse width on LCD */
 598:main.c        ****                 //LCD_Position(0u, 14u);
 599:main.c        ****                 //LCD_PrintInt8(pulseWidthValue);
 600:main.c        **** 
 601:main.c        ****             //}
 602:main.c        ****             //else
 603:main.c        ****             //{
 604:main.c        ****                 /* Display received switch status on LCD */
 605:main.c        ****             //    LCD_PrintString("released");
 606:main.c        ****             //}
 607:main.c        ****             //receiveMailboxNumber = 0xFFu;
 608:main.c        ****         //}
 609:main.c        ****         
 610:main.c        ****         //received
 611:main.c        **** 
 612:main.c        ****         //if (receiveMailboxNumber == CAN_RX_MAILBOX_ADCdata)
 613:main.c        ****         //{
 614:main.c        ****         //    adcData = ((uint16) ((uint16) CAN_RX_DATA_BYTE1(CAN_RX_MAILBOX_ADCdata) << ONE_BYTE_O
 615:main.c        ****         //    CAN_RX_DATA_BYTE2(CAN_RX_MAILBOX_ADCdata);
 616:main.c        ****             
 617:main.c        ****             /* Display received ADC data on LCD */
 618:main.c        ****        //     sprintf(txData, "%u.%.3u", (adcData / 1000u), (adcData % 1000u));
 619:main.c        ****         //    txData[DATA_SIZE - 1u] = (char8) '\0';
 620:main.c        ****             
 621:main.c        ****         //    LCD_Position(0u, 4u);
 622:main.c        ****          //   LCD_PrintString(txData);
ARM GAS  C:\Users\Schuyler\AppData\Local\Temp\ccoGzKg4.s 			page 28


 623:main.c        ****          //   receiveMailboxNumber = 0xFFu;
 624:main.c        ****         //}
 625:main.c        ****     } 
 626:main.c        **** }
 627:main.c        **** 
 628:main.c        **** /*
 629:main.c        **** // 0 for HV, 1 for Drive
 630:main.c        **** static uint32 ReadSwSwitch(uint8_t choice)
 631:main.c        **** {
 632:main.c        ****     uint32 heldDown;
 633:main.c        ****     uint32 swStatus;
 634:main.c        **** 
 635:main.c        ****     swStatus = 0u;  // Switch is not active 
 636:main.c        ****     heldDown = 0u;  // Reset debounce counter
 637:main.c        **** 
 638:main.c        ****     
 639:main.c        ****     if (choice)
 640:main.c        ****         swStatus = Drive_Read();
 641:main.c        ****     else
 642:main.c        ****         swStatus = HV_Read();
 643:main.c        **** 
 644:main.c        ****     return (swStatus);
 645:main.c        **** }
 646:main.c        **** */
 647:main.c        **** /*******************************************************************************
 648:main.c        **** * Function Name: ISR_CAN
 649:main.c        **** ********************************************************************************
 650:main.c        **** *
 651:main.c        **** * Summary:
 652:main.c        **** *  This ISR is executed at a Receive Message event and set receiveMailboxNumber
 653:main.c        **** *  global variable with receive message mailbox number.
 654:main.c        **** *
 655:main.c        **** * Parameters:
 656:main.c        **** *  None.
 657:main.c        **** *
 658:main.c        **** * Return:
 659:main.c        **** *  None.
 660:main.c        **** *
 661:main.c        **** *******************************************************************************/
 662:main.c        **** CY_ISR(ISR_CAN)
 663:main.c        **** {   
 780              		.loc 1 663 0
 781              		.cfi_startproc
 782              		@ args = 0, pretend = 0, frame = 0
 783              		@ frame_needed = 0, uses_anonymous_args = 0
 784              		@ link register save eliminated.
 664:main.c        ****     /* Clear Receive Message flag */
 665:main.c        ****     CAN_INT_SR_REG.byte[1u] = CAN_RX_MESSAGE_MASK;
 785              		.loc 1 665 0
 786 0000 1022     		movs	r2, #16
 787 0002 044B     		ldr	r3, .L42
 788 0004 5A70     		strb	r2, [r3, #1]
 666:main.c        **** 
 667:main.c        ****     /* Set the isrFlag */
 668:main.c        ****     //isrFlag = 1u;    
 669:main.c        **** 
 670:main.c        ****     /* Acknowledges receipt of new message */
ARM GAS  C:\Users\Schuyler\AppData\Local\Temp\ccoGzKg4.s 			page 29


 671:main.c        ****     CAN_RX_ACK_MESSAGE(CAN_RX_MAILBOX_0);
 789              		.loc 1 671 0
 790 0006 044A     		ldr	r2, .L42+4
 791 0008 1378     		ldrb	r3, [r2]	@ zero_extendqisi2
 792 000a 43F00103 		orr	r3, r3, #1
 793 000e 1370     		strb	r3, [r2]
 794 0010 7047     		bx	lr
 795              	.L43:
 796 0012 00BF     		.align	2
 797              	.L42:
 798 0014 00A00040 		.word	1073782784
 799 0018 A0A00040 		.word	1073782944
 800              		.cfi_endproc
 801              	.LFE66:
 802              		.size	ISR_CAN, .-ISR_CAN
 803              		.global	pedalOK
 804              		.global	DriveSwitch
 805              		.global	HVSwitch
 806              		.bss
 807              		.align	2
 808              		.set	.LANCHOR0,. + 0
 809              		.type	pedalOK, %object
 810              		.size	pedalOK, 4
 811              	pedalOK:
 812 0000 00000000 		.space	4
 813              		.type	DriveSwitch, %object
 814              		.size	DriveSwitch, 1
 815              	DriveSwitch:
 816 0004 00       		.space	1
 817              		.type	HVSwitch, %object
 818              		.size	HVSwitch, 1
 819              	HVSwitch:
 820 0005 00       		.space	1
 821              		.text
 822              	.Letext0:
 823              		.file 2 "c:\\program files (x86)\\cypress\\psoc creator\\4.1\\psoc creator\\import\\gnu\\arm\\5.4.
 824              		.file 3 "c:\\program files (x86)\\cypress\\psoc creator\\4.1\\psoc creator\\import\\gnu\\arm\\5.4.
 825              		.file 4 "Generated_Source\\PSoC5/cytypes.h"
 826              		.file 5 "Generated_Source\\PSoC5/CAN.h"
 827              		.file 6 "Generated_Source\\PSoC5/core_cm3.h"
 828              		.file 7 "Generated_Source\\PSoC5/Node_Timer.h"
 829              		.file 8 "Generated_Source\\PSoC5/isr_nodeok.h"
 830              		.file 9 "can_manga.h"
 831              		.file 10 "Generated_Source\\PSoC5/CyLib.h"
 832              		.file 11 "Generated_Source\\PSoC5/LCD.h"
 833              		.file 12 "Generated_Source\\PSoC5/Buzzer.h"
 834              		.file 13 "Generated_Source\\PSoC5/WaveDAC8_1_VDAC8.h"
 835              		.file 14 "Generated_Source\\PSoC5/RGB3_1.h"
 836              		.file 15 "Generated_Source\\PSoC5/RGB2_1.h"
 837              		.file 16 "Generated_Source\\PSoC5/RGB1_1.h"
 838              		.file 17 "Generated_Source\\PSoC5/RGB3_2.h"
 839              		.file 18 "Generated_Source\\PSoC5/RGB2_2.h"
 840              		.file 19 "Generated_Source\\PSoC5/RGB1_2.h"
 841              		.file 20 "Generated_Source\\PSoC5/Drive.h"
 842              		.file 21 "Generated_Source\\PSoC5/HV.h"
 843              		.file 22 "Generated_Source\\PSoC5/WaveDAC8_1.h"